(lp0
ccopy_reg
_reconstructor
p1
(cBenchmarkSVM
Point_3D
p2
c__builtin__
tuple
p3
(S'poly'
p4
cnumpy.core.multiarray
scalar
p5
(cnumpy
dtype
p6
(S'f8'
p7
I0
I1
tp8
Rp9
(I3
S'<'
p10
NNNI-1
I-1
I0
tp11
bS'\nh"lxz\xf7?'
p12
tp13
Rp14
F0.1
F0.8402777777777778
tp15
tp16
Rp17
ag1
(g2
g3
(g4
g5
(g9
S'j\xbct\x93\x18\x04\xfb?'
p18
tp19
Rp20
F0.1
F0.8389513108614233
tp21
tp22
Rp23
ag1
(g2
g3
(g4
g5
(g9
S'\x96\xd4\th"l\x04@'
p24
tp25
Rp26
F0.1
F0.8377358490566038
tp27
tp28
Rp29
ag1
(g2
g3
(g4
g5
(g9
S'\xac>W[\xb1\xbf\r@'
p30
tp31
Rp32
F0.1
F0.8352490421455939
tp33
tp34
Rp35
ag1
(g2
g3
(g4
g5
(g9
S'\xac\x1cZd;\xdf\xe5?'
p36
tp37
Rp38
F0.1
F0.8351648351648352
tp39
tp40
Rp41
ag1
(g2
g3
(g4
g5
(g9
S'\x0e-\xb2\x9d\xef\xa7\xe2?'
p42
tp43
Rp44
F0.1
F0.83271375464684
tp45
tp46
Rp47
ag1
(g2
g3
(g4
g5
(g9
S'H\xbf}\x1d8g\xf0?'
p48
tp49
Rp50
F0.1
F0.8320610687022901
tp51
tp52
Rp53
ag1
(g2
g3
(g4
g5
(g9
S'\xcd\xcc\xcc\xcc\xcc\xcc\xf7?'
p54
tp55
Rp56
F0.1
F0.8313725490196078
tp57
tp58
Rp59
ag1
(g2
g3
(g4
g5
(g9
S'\xdch\x00o\x81\x84\x0f@'
p60
tp61
Rp62
F0.1
F0.8313725490196078
tp63
tp64
Rp65
ag1
(g2
g3
(g4
g5
(g9
S'\x95\xf6\x06_\x98\xcc\x07@'
p66
tp67
Rp68
F0.1
F0.8307692307692308
tp69
tp70
Rp71
ag1
(g2
g3
(g4
g5
(g9
S'\x19\x04V\x0e-2\x0f@'
p72
tp73
Rp74
F0.1
F0.8305084745762712
tp75
tp76
Rp77
ag1
(g2
g3
(g4
g5
(g9
S'\x14?\xc6\xdc\xb5\x84\xff?'
p78
tp79
Rp80
F0.1
F0.8288973384030419
tp81
tp82
Rp83
ag1
(g2
g3
(g4
g5
(g9
S'c\x10X9\xb4\xc8\x0c@'
p84
tp85
Rp86
F0.1
F0.8257575757575757
tp87
tp88
Rp89
ag1
(g2
g3
(g4
g5
(g9
S'2\x08\xac\x1cZd\x0e@'
p90
tp91
Rp92
F0.1
F0.8230769230769232
tp93
tp94
Rp95
ag1
(g2
g3
(g4
g5
(g9
S'\x85Z\xd3\xbc\xe3\x14\xf0?'
p96
tp97
Rp98
F0.1
F0.8221343873517787
tp99
tp100
Rp101
ag1
(g2
g3
(g4
g5
(g9
S'9\xb4\xc8v\xbe\x9f\xfc?'
p102
tp103
Rp104
F0.1
F0.8217054263565892
tp105
tp106
Rp107
ag1
(g2
g3
(g4
g5
(g9
S'\x0b$(~\x8c\xb9\xf0?'
p108
tp109
Rp110
F0.1
F0.8211382113821138
tp111
tp112
Rp113
ag1
(g2
g3
(g4
g5
(g9
S'F\x94\xf6\x06_\x98\xc4?'
p114
tp115
Rp116
F0.1
F0.8172043010752688
tp117
tp118
Rp119
ag1
(g2
g3
(g4
g5
(g9
S'd\xeeZB>h\t@'
p120
tp121
Rp122
F0.1
F0.8169014084507042
tp123
tp124
Rp125
ag1
(g2
g3
(g4
g5
(g9
S'\x16\xfb\xcb\xee\xc9\xc3\xf8?'
p126
tp127
Rp128
F0.1
F0.8161764705882354
tp129
tp130
Rp131
ag1
(g2
g3
(g4
g5
(g9
S'\xe6\xae%\xe4\x83\x9e\xf3?'
p132
tp133
Rp134
F0.1
F0.8153846153846155
tp135
tp136
Rp137
ag1
(g2
g3
(g4
g5
(g9
S'\xe9\xd9\xac\xfa\\m\r@'
p138
tp139
Rp140
F0.1
F0.8153846153846154
tp141
tp142
Rp143
ag1
(g2
g3
(g4
g5
(g9
S'\xf6\x06_\x98L\x15\xe0?'
p144
tp145
Rp146
F0.1
F0.8134328358208954
tp147
tp148
Rp149
ag1
(g2
g3
(g4
g5
(g9
S'\xdf\xe0\x0b\x93\xa9\x02\x02@'
p150
tp151
Rp152
F0.1
F0.8127490039840638
tp153
tp154
Rp155
ag1
(g2
g3
(g4
g5
(g9
S'\xad\xfa\\m\xc5\xfe\x06@'
p156
tp157
Rp158
F0.1
F0.8124999999999999
tp159
tp160
Rp161
ag1
(g2
g3
(g4
g5
(g9
S'\x00\x00\x00\x00\x00\x00\x10@'
p162
tp163
Rp164
F0.1
F0.8114754098360656
tp165
tp166
Rp167
ag1
(g2
g3
(g4
g5
(g9
S'\xcb\x10\xc7\xba\xb8\x8d\xfe?'
p168
tp169
Rp170
F0.1
F0.811023622047244
tp171
tp172
Rp173
ag1
(g2
g3
(g4
g5
(g9
S'\xb3\xeas\xb5\x15\xfb\xfb?'
p174
tp175
Rp176
F0.1
F0.8097165991902834
tp177
tp178
Rp179
ag1
(g2
g3
(g4
g5
(g9
S'\xf8\xe4a\xa1\xd64\x01@'
p180
tp181
Rp182
F0.1
F0.8089887640449438
tp183
tp184
Rp185
ag1
(g2
g3
(g4
g5
(g9
S'\xbd\xc1\x17&S\x05\xdb?'
p186
tp187
Rp188
F0.1
F0.8088235294117647
tp189
tp190
Rp191
ag1
(g2
g3
(g4
g5
(g9
S'\xb5\xa6y\xc7):\xf5?'
p192
tp193
Rp194
F0.1
F0.8088235294117647
tp195
tp196
Rp197
ag1
(g2
g3
(g4
g5
(g9
S'_)\xcb\x10\xc7\xba\xf9?'
p198
tp199
Rp200
F0.1
F0.8060836501901141
tp201
tp202
Rp203
ag1
(g2
g3
(g4
g5
(g9
S'\x10\x0b\xb5\xa6y\xc7\x03@'
p204
tp205
Rp206
F0.1
F0.8048780487804879
tp207
tp208
Rp209
ag1
(g2
g3
(g4
g5
(g9
S'\xc9T\xc1\xa8\xa4N\xdc?'
p210
tp211
Rp212
F0.1
F0.8046874999999999
tp213
tp214
Rp215
ag1
(g2
g3
(g4
g5
(g9
S'\xf5lV}\xae\xb6\x0e@'
p216
tp217
Rp218
F0.1
F0.8046874999999999
tp219
tp220
Rp221
ag1
(g2
g3
(g4
g5
(g9
S'(\x0f\x0b\xb5\xa6\xf9\x02@'
p222
tp223
Rp224
F0.1
F0.8045977011494252
tp225
tp226
Rp227
ag1
(g2
g3
(g4
g5
(g9
S'2\xe6\xae%\xe4\x83\xe6?'
p228
tp229
Rp230
F0.1
F0.8044280442804427
tp231
tp232
Rp233
ag1
(g2
g3
(g4
g5
(g9
S'4\xa2\xb47\xf8B\x04@'
p234
tp235
Rp236
F0.1
F0.8032128514056226
tp237
tp238
Rp239
ag1
(g2
g3
(g4
g5
(g9
S'\xc5 \xb0rh\x91\t@'
p240
tp241
Rp242
F0.1
F0.8031496062992126
tp243
tp244
Rp245
ag1
(g2
g3
(g4
g5
(g9
S'\x87\xa7W\xca2D\r@'
p246
tp247
Rp248
F0.1
F0.8030303030303031
tp249
tp250
Rp251
ag1
(g2
g3
(g4
g5
(g9
S'\xff!\xfd\xf6u\xe0\xee?'
p252
tp253
Rp254
F0.1
F0.8029739776951673
tp255
tp256
Rp257
ag1
(g2
g3
(g4
g5
(g9
S"TR'\xa0\x89\xb0\xf1?"
p258
tp259
Rp260
F0.1
F0.8015267175572519
tp261
tp262
Rp263
ag1
(g2
g3
(g4
g5
(g9
S'\x0eO\xaf\x94e\x88\n@'
p264
tp265
Rp266
F0.1
F0.8014440433212996
tp267
tp268
Rp269
ag1
(g2
g3
(g4
g5
(g9
S'?W[\xb1\xbf\xec\x08@'
p270
tp271
Rp272
F0.1
F0.801418439716312
tp273
tp274
Rp275
ag1
(g2
g3
(g4
g5
(g9
S'\xffC\xfa\xed\xeb\xc0\xb9?'
p276
tp277
Rp278
F0.1
F0.8
tp279
tp280
Rp281
ag1
(g2
g3
(g4
g5
(g9
S'!\x8euq\x1b\r\xfa?'
p282
tp283
Rp284
F0.1
F0.8
tp285
tp286
Rp287
ag1
(g2
g3
(g4
g5
(g9
S'q=\n\xd7\xa3\xf0\x03@'
p288
tp289
Rp290
F0.1
F0.8
tp291
tp292
Rp293
ag1
(g2
g3
(g4
g5
(g9
S'L\xc8\x07=\x9b\xd5\x06@'
p294
tp295
Rp296
F0.1
F0.8
tp297
tp298
Rp299
ag1
(g2
g3
(g4
g5
(g9
S'\x88\x85Z\xd3\xbc\xe3\t@'
p300
tp301
Rp302
F0.1
F0.8
tp303
tp304
Rp305
ag1
(g2
g3
(g4
g5
(g9
S'Y\x17\xb7\xd1\x00^\x01@'
p306
tp307
Rp308
F0.1
F0.7999999999999999
tp309
tp310
Rp311
ag1
(g2
g3
(g4
g5
(g9
S'\x84\x9e\xcd\xaa\xcf\xd5\xf6?'
p312
tp313
Rp314
F0.1
F0.7984790874524715
tp315
tp316
Rp317
ag1
(g2
g3
(g4
g5
(g9
S'\x1a\xc0[ A\xf1\xe3?'
p318
tp319
Rp320
F0.1
F0.7984496124031009
tp321
tp322
Rp323
ag1
(g2
g3
(g4
g5
(g9
S'a2U0*\xa9\xeb?'
p324
tp325
Rp326
F0.1
F0.7984496124031008
tp327
tp328
Rp329
ag1
(g2
g3
(g4
g5
(g9
S'x\x0b$(~\x8c\xf5?'
p330
tp331
Rp332
F0.1
F0.7984189723320159
tp333
tp334
Rp335
ag1
(g2
g3
(g4
g5
(g9
S'\xdbh\x00o\x81\x04\xeb?'
p336
tp337
Rp338
F0.1
F0.7984189723320158
tp339
tp340
Rp341
ag1
(g2
g3
(g4
g5
(g9
S'.n\xa3\x01\xbc\x05\xc2?'
p342
tp343
Rp344
F0.1
F0.7972508591065293
tp345
tp346
Rp347
ag1
(g2
g3
(g4
g5
(g9
S'^\xbaI\x0c\x02+\xc7?'
p348
tp349
Rp350
F0.1
F0.7971014492753624
tp351
tp352
Rp353
ag1
(g2
g3
(g4
g5
(g9
S'A\x13a\xc3\xd3+\x02@'
p354
tp355
Rp356
F0.1
F0.7969348659003831
tp357
tp358
Rp359
ag1
(g2
g3
(g4
g5
(g9
S'S\x96!\x8euq\xf8?'
p360
tp361
Rp362
F0.1
F0.7967479674796748
tp363
tp364
Rp365
ag1
(g2
g3
(g4
g5
(g9
S'\x94\x18\x04V\x0e-\x0b@'
p366
tp367
Rp368
F0.1
F0.7966804979253111
tp369
tp370
Rp371
ag1
(g2
g3
(g4
g5
(g9
S'vO\x1e\x16jM\xfc?'
p372
tp373
Rp374
F0.1
F0.7954545454545455
tp375
tp376
Rp377
ag1
(g2
g3
(g4
g5
(g9
S'\xf7\x06_\x98L\x95\x04@'
p378
tp379
Rp380
F0.1
F0.7954545454545454
tp381
tp382
Rp383
ag1
(g2
g3
(g4
g5
(g9
S'yX\xa85\xcd;\xee?'
p384
tp385
Rp386
F0.1
F0.7938931297709924
tp387
tp388
Rp389
ag1
(g2
g3
(g4
g5
(g9
S'\xfe\xd4x\xe9&1\xf6?'
p390
tp391
Rp392
F0.1
F0.7938931297709922
tp393
tp394
Rp395
ag1
(g2
g3
(g4
g5
(g9
S'\x9f\xcd\xaa\xcf\xd5\xd6\x0f@'
p396
tp397
Rp398
F0.1
F0.7937743190661479
tp399
tp400
Rp401
ag1
(g2
g3
(g4
g5
(g9
S'&u\x02\x9a\x08\x1b\r@'
p402
tp403
Rp404
F0.1
F0.7936507936507936
tp405
tp406
Rp407
ag1
(g2
g3
(g4
g5
(g9
S'\x82\xe2\xc7\x98\xbb\x96\xfd?'
p408
tp409
Rp410
F0.1
F0.7935222672064777
tp411
tp412
Rp413
ag1
(g2
g3
(g4
g5
(g9
S'=\x9bU\x9f\xab\xad\x0f@'
p414
tp415
Rp416
F0.1
F0.7919999999999999
tp417
tp418
Rp419
ag1
(g2
g3
(g4
g5
(g9
S'\x08\xac\x1cZd;\xfe?'
p420
tp421
Rp422
F0.1
F0.7918367346938775
tp423
tp424
Rp425
ag1
(g2
g3
(g4
g5
(g9
S'\xbbI\x0c\x02+\x87\x01@'
p426
tp427
Rp428
F0.1
F0.7908745247148289
tp429
tp430
Rp431
ag1
(g2
g3
(g4
g5
(g9
S"\x0f-\xb2\x9d\xef'\x07@"
p432
tp433
Rp434
F0.1
F0.7903225806451614
tp435
tp436
Rp437
ag1
(g2
g3
(g4
g5
(g9
S'e\xaa`TR\xa7\x02@'
p438
tp439
Rp440
F0.1
F0.7888446215139442
tp441
tp442
Rp443
ag1
(g2
g3
(g4
g5
(g9
S'\xa0\x89\xb0\xe1\xe9\x95\xe4?'
p444
tp445
Rp446
F0.1
F0.7886178861788619
tp447
tp448
Rp449
ag1
(g2
g3
(g4
g5
(g9
S'\xbf}\x1d8gD\xfd?'
p450
tp451
Rp452
F0.1
F0.7878787878787878
tp453
tp454
Rp455
ag1
(g2
g3
(g4
g5
(g9
S'\x9d\x80&\xc2\x86\xa7\xf2?'
p456
tp457
Rp458
F0.1
F0.7876447876447876
tp459
tp460
Rp461
ag1
(g2
g3
(g4
g5
(g9
S'\x1c|a2U\xb0\x01@'
p462
tp463
Rp464
F0.1
F0.7874015748031497
tp465
tp466
Rp467
ag1
(g2
g3
(g4
g5
(g9
S'\xc6\xfe\xb2{\xf20\x06@'
p468
tp469
Rp470
F0.1
F0.7874015748031495
tp471
tp472
Rp473
ag1
(g2
g3
(g4
g5
(g9
S'\x94\xf6\x06_\x98L\xe3?'
p474
tp475
Rp476
F0.1
F0.7865168539325842
tp477
tp478
Rp479
ag1
(g2
g3
(g4
g5
(g9
S'\x17\xb7\xd1\x00\xde\x02\xf2?'
p480
tp481
Rp482
F0.1
F0.7862595419847327
tp483
tp484
Rp485
ag1
(g2
g3
(g4
g5
(g9
S'-!\x1f\xf4lV\xfb?'
p486
tp487
Rp488
F0.1
F0.7859922178988327
tp489
tp490
Rp491
ag1
(g2
g3
(g4
g5
(g9
S'\xfc\x18s\xd7\x12\xf2\xfc?'
p492
tp493
Rp494
F0.1
F0.7859922178988327
tp495
tp496
Rp497
ag1
(g2
g3
(g4
g5
(g9
S'M\x84\rO\xaf\x14\x00@'
p498
tp499
Rp500
F0.1
F0.7859922178988327
tp501
tp502
Rp503
ag1
(g2
g3
(g4
g5
(g9
S'vO\x1e\x16jM\xd3?'
p504
tp505
Rp506
F0.1
F0.7859649122807018
tp507
tp508
Rp509
ag1
(g2
g3
(g4
g5
(g9
S'\xd9_vO\x1e\x16\xf9?'
p510
tp511
Rp512
F0.1
F0.7857142857142857
tp513
tp514
Rp515
ag1
(g2
g3
(g4
g5
(g9
S'\x02\xbc\x05\x12\x14?\t@'
p516
tp517
Rp518
F0.1
F0.7857142857142856
tp519
tp520
Rp521
ag1
(g2
g3
(g4
g5
(g9
S'\xf5JY\x868V\x0b@'
p522
tp523
Rp524
F0.1
F0.7854251012145749
tp525
tp526
Rp527
ag1
(g2
g3
(g4
g5
(g9
S'\x93:\x01M\x84\x8d\x0e@'
p528
tp529
Rp530
F0.1
F0.7851851851851852
tp531
tp532
Rp533
ag1
(g2
g3
(g4
g5
(g9
S'\x901w-!\x1f\xf8?'
p534
tp535
Rp536
F0.1
F0.7846153846153847
tp537
tp538
Rp539
ag1
(g2
g3
(g4
g5
(g9
S'2\xe6\xae%\xe4\x03\x0b@'
p540
tp541
Rp542
F0.1
F0.7843137254901961
tp543
tp544
Rp545
ag1
(g2
g3
(g4
g5
(g9
S'\x91\xed|?5^\xf1?'
p546
tp547
Rp548
F0.1
F0.784313725490196
tp549
tp550
Rp551
ag1
(g2
g3
(g4
g5
(g9
S'p_\x07\xce\x19Q\x07@'
p552
tp553
Rp554
F0.1
F0.7841726618705036
tp555
tp556
Rp557
ag1
(g2
g3
(g4
g5
(g9
S'\xb7\xd1\x00\xde\x02\t\x0f@'
p558
tp559
Rp560
F0.1
F0.7835820895522388
tp561
tp562
Rp563
ag1
(g2
g3
(g4
g5
(g9
S'\x9a\x08\x1b\x9e^)\xd7?'
p564
tp565
Rp566
F0.1
F0.7832699619771862
tp567
tp568
Rp569
ag1
(g2
g3
(g4
g5
(g9
S'J\x0c\x02+\x87\x96\r@'
p570
tp571
Rp572
F0.1
F0.7829457364341086
tp573
tp574
Rp575
ag1
(g2
g3
(g4
g5
(g9
S'~\xae\xb6b\x7f\xd9\x01@'
p576
tp577
Rp578
F0.1
F0.7829457364341085
tp579
tp580
Rp581
ag1
(g2
g3
(g4
g5
(g9
S'/\xdd$\x06\x81\x95\xf4?'
p582
tp583
Rp584
F0.1
F0.7826086956521738
tp585
tp586
Rp587
ag1
(g2
g3
(g4
g5
(g9
S'\x8d\x06\xf0\x16HP\xcc?'
p588
tp589
Rp590
F0.1
F0.7822878228782287
tp591
tp592
Rp593
ag1
(g2
g3
(g4
g5
(g9
S'\xce\x88\xd2\xde\xe0\x0b\xf1?'
p594
tp595
Rp596
F0.1
F0.7822580645161291
tp597
tp598
Rp599
ag1
(g2
g3
(g4
g5
(g9
S'\x8euq\x1b\r\xe0\xd5?'
p600
tp601
Rp602
F0.1
F0.7819548872180451
tp603
tp604
Rp605
ag1
(g2
g3
(g4
g5
(g9
S'\xf2A\xcff\xd5\xe7\xf4?'
p606
tp607
Rp608
F0.1
F0.7816091954022989
tp609
tp610
Rp611
ag1
(g2
g3
(g4
g5
(g9
S'\x9c\xc4 \xb0rh\xf9?'
p612
tp613
Rp614
F0.1
F0.7816091954022988
tp615
tp616
Rp617
ag1
(g2
g3
(g4
g5
(g9
S'\xb9\x8d\x06\xf0\x16H\x08@'
p618
tp619
Rp620
F0.1
F0.7811158798283262
tp621
tp622
Rp623
ag1
(g2
g3
(g4
g5
(g9
S'o\xa3\x01\xbc\x05\x12\x0e@'
p624
tp625
Rp626
F0.1
F0.7808764940239042
tp627
tp628
Rp629
ag1
(g2
g3
(g4
g5
(g9
S'\x1b\x9e^)\xcb\x10\x05@'
p630
tp631
Rp632
F0.1
F0.7806691449814126
tp633
tp634
Rp635
ag1
(g2
g3
(g4
g5
(g9
S'd\xcc]K\xc8\x07\x06@'
p636
tp637
Rp638
F0.1
F0.7804878048780488
tp639
tp640
Rp641
ag1
(g2
g3
(g4
g5
(g9
S'\xb8\xaf\x03\xe7\x8c\xa8\x0b@'
p642
tp643
Rp644
F0.1
F0.7804878048780488
tp645
tp646
Rp647
ag1
(g2
g3
(g4
g5
(g9
S'\rq\xac\x8b\xdb\xe8\r@'
p648
tp649
Rp650
F0.1
F0.7804878048780488
tp651
tp652
Rp653
ag1
(g2
g3
(g4
g5
(g9
S'#J{\x83/L\xf3?'
p654
tp655
Rp656
F0.1
F0.7803030303030303
tp657
tp658
Rp659
ag1
(g2
g3
(g4
g5
(g9
S'\xaf\xb6b\x7f\xd9=\x00@'
p660
tp661
Rp662
F0.01
F0.7798742138364779
tp663
tp664
Rp665
ag1
(g2
g3
(g4
g5
(g9
S'\xd1\xb3Y\xf5\xb9\xda\n@'
p666
tp667
Rp668
F0.1
F0.779783393501805
tp669
tp670
Rp671
ag1
(g2
g3
(g4
g5
(g9
S'\xd2\x91\\\xfeCz\x07@'
p672
tp673
Rp674
F0.1
F0.7796610169491526
tp675
tp676
Rp677
ag1
(g2
g3
(g4
g5
(g9
S'.\x90\xa0\xf81\xe6\xbe?'
p678
tp679
Rp680
F0.1
F0.7796610169491525
tp681
tp682
Rp683
ag1
(g2
g3
(g4
g5
(g9
S'\xbak\t\xf9\xa0\xe7\x04@'
p684
tp685
Rp686
F0.1
F0.7795275590551182
tp687
tp688
Rp689
ag1
(g2
g3
(g4
g5
(g9
S';p\xce\x88\xd2\xde\xf5?'
p690
tp691
Rp692
F0.1
F0.7795275590551181
tp693
tp694
Rp695
ag1
(g2
g3
(g4
g5
(g9
S'\x85\xebQ\xb8\x1e\x85\xef?'
p696
tp697
Rp698
F0.1
F0.7794117647058824
tp699
tp700
Rp701
ag1
(g2
g3
(g4
g5
(g9
S'\x01\xde\x02\t\x8a\x9f\x0c@'
p702
tp703
Rp704
F0.1
F0.7791164658634537
tp705
tp706
Rp707
ag1
(g2
g3
(g4
g5
(g9
S'lxz\xa5,C\xf4?'
p708
tp709
Rp710
F0.1
F0.7790262172284644
tp711
tp712
Rp713
ag1
(g2
g3
(g4
g5
(g9
S'\xe7\xfb\xa9\xf1\xd2M\xec?'
p714
tp715
Rp716
F0.1
F0.7786259541984732
tp717
tp718
Rp719
ag1
(g2
g3
(g4
g5
(g9
S'\xf3\x8eSt$\x97\xed?'
p720
tp721
Rp722
F0.1
F0.7782101167315175
tp723
tp724
Rp725
ag1
(g2
g3
(g4
g5
(g9
S'\xc7\xdc\xb5\x84|\xd0\x02@'
p726
tp727
Rp728
F0.1
F0.7782101167315175
tp729
tp730
Rp731
ag1
(g2
g3
(g4
g5
(g9
S'?W[\xb1\xbf\xec\xae?'
p732
tp733
Rp734
F0.1
F0.7781818181818182
tp735
tp736
Rp737
ag1
(g2
g3
(g4
g5
(g9
S'\xde$\x06\x81\x95\xc3\x08@'
p738
tp739
Rp740
F0.1
F0.7764705882352941
tp741
tp742
Rp743
ag1
(g2
g3
(g4
g5
(g9
S'r\x1b\r\xe0-\x90\x00@'
p744
tp745
Rp746
F0.1
F0.776470588235294
tp747
tp748
Rp749
ag1
(g2
g3
(g4
g5
(g9
S'\xac\x1cZd;_\n@'
p750
tp751
Rp752
F0.1
F0.776470588235294
tp753
tp754
Rp755
ag1
(g2
g3
(g4
g5
(g9
S'\xa1g\xb3\xeas\xb5\x05@'
p756
tp757
Rp758
F0.1
F0.7761194029850748
tp759
tp760
Rp761
ag1
(g2
g3
(g4
g5
(g9
S'\xda\x1b|a2U\xf2?'
p762
tp763
Rp764
F0.1
F0.7751937984496124
tp765
tp766
Rp767
ag1
(g2
g3
(g4
g368
F0.01
F0.7747747747747747
tp768
tp769
Rp770
ag1
(g2
g3
(g4
g5
(g9
S'EGr\xf9\x0f\xe9\xfd?'
p771
tp772
Rp773
F0.1
F0.7747035573122528
tp774
tp775
Rp776
ag1
(g2
g3
(g4
g5
(g9
S'|\xd0\xb3Y\xf5\xb9\xe0?'
p777
tp778
Rp779
F0.1
F0.7744360902255638
tp780
tp781
Rp782
ag1
(g2
g3
(g4
g5
(g9
S'\xae\xd8_vO\x9e\x03@'
p783
tp784
Rp785
F0.1
F0.7741935483870968
tp786
tp787
Rp788
ag1
(g2
g3
(g4
g5
(g9
S'\xa0\xab\xad\xd8_v\x0c@'
p789
tp790
Rp791
F0.1
F0.7739130434782608
tp792
tp793
Rp794
ag1
(g2
g3
(g4
g5
(g9
S'\xf6(\\\x8f\xc2\xf5\x07@'
p795
tp796
Rp797
F0.1
F0.7729083665338645
tp798
tp799
Rp800
ag1
(g2
g3
(g4
g5
(g9
S'\xc4B\xadi\xdeq\xe8?'
p801
tp802
Rp803
F0.1
F0.7725631768953067
tp804
tp805
Rp806
ag1
(g2
g3
(g4
g5
(g9
S"'S\x05\xa3\x92\xba\t@"
p807
tp808
Rp809
F0.1
F0.7725321888412019
tp810
tp811
Rp812
ag1
(g2
g3
(g4
g5
(g9
S'V\x9f\xab\xad\xd8\xdf\x0e@'
p813
tp814
Rp815
F0.1
F0.7715355805243447
tp816
tp817
Rp818
ag1
(g2
g3
(g4
g5
(g9
S'^)\xcb\x10\xc7\xba\xd0?'
p819
tp820
Rp821
F0.1
F0.7715355805243446
tp822
tp823
Rp824
ag1
(g2
g3
(g4
g5
(g9
S'\x82\xe2\xc7\x98\xbb\x96\xd4?'
p825
tp826
Rp827
F0.1
F0.7714285714285715
tp828
tp829
Rp830
ag1
(g2
g3
(g4
g5
(g9
S'U\x9f\xab\xad\xd8_\xea?'
p831
tp832
Rp833
F0.1
F0.7710843373493976
tp834
tp835
Rp836
ag1
(g2
g3
(g4
g5
(g9
S'\x96\xb2\x0cq\xac\x0b\x01@'
p837
tp838
Rp839
F0.1
F0.7710843373493975
tp840
tp841
Rp842
ag1
(g2
g3
(g4
g5
(g9
S'\x04x\x0b$(~\x02@'
p843
tp844
Rp845
F0.1
F0.7709923664122138
tp846
tp847
Rp848
ag1
(g2
g3
(g4
g50
F0.01
F0.7707006369426752
tp849
tp850
Rp851
ag1
(g2
g3
(g4
g5
(g9
S'X[\xb1\xbf\xec\x1e\x08@'
p852
tp853
Rp854
F0.1
F0.7703703703703704
tp855
tp856
Rp857
ag1
(g2
g3
(g4
g422
F0.01
F0.7701863354037267
tp858
tp859
Rp860
ag1
(g2
g3
(g4
g5
(g9
S'z6\xab>W[\x0f@'
p861
tp862
Rp863
F0.1
F0.7698744769874478
tp864
tp865
Rp866
ag1
(g2
g3
(g4
g5
(g9
S'>yX\xa85M\x0c@'
p867
tp868
Rp869
F0.1
F0.7698744769874476
tp870
tp871
Rp872
ag1
(g2
g3
(g4
g5
(g9
S'\xa6\x9b\xc4 \xb0r\xd8?'
p873
tp874
Rp875
F0.1
F0.7698113207547169
tp876
tp877
Rp878
ag1
(g2
g3
(g4
g5
(g9
S'\xf0\x85\xc9T\xc1\xa8\xfb?'
p879
tp880
Rp881
F0.01
F0.7697368421052632
tp882
tp883
Rp884
ag1
(g2
g3
(g4
g662
F0.1
F0.7692307692307692
tp885
tp886
Rp887
ag1
(g2
g3
(g4
g5
(g9
S'J\x0c\x02+\x87\x16\xe9?'
p888
tp889
Rp890
F0.1
F0.7686832740213523
tp891
tp892
Rp893
ag1
(g2
g3
(g4
g5
(g9
S'\xa2E\xb6\xf3\xfdT\x02@'
p894
tp895
Rp896
F0.1
F0.7686274509803922
tp897
tp898
Rp899
ag1
(g2
g3
(g4
g5
(g9
S'X9\xb4\xc8v\xbe\x04@'
p900
tp901
Rp902
F0.1
F0.7681159420289855
tp903
tp904
Rp905
ag1
(g2
g3
(g4
g5
(g9
S'G\x03x\x0b$(\xf7?'
p906
tp907
Rp908
F0.1
F0.7675276752767528
tp909
tp910
Rp911
ag1
(g2
g3
(g4
g5
(g9
S'\xd0\xd5V\xec/\xbb\xe9?'
p912
tp913
Rp914
F0.1
F0.7674418604651163
tp915
tp916
Rp917
ag1
(g2
g3
(g4
g5
(g9
S'@5^\xbaI\x8c\x05@'
p918
tp919
Rp920
F0.1
F0.7674418604651163
tp921
tp922
Rp923
ag1
(g2
g3
(g4
g5
(g9
S'\xde\x02\t\x8a\x1fc\x05@'
p924
tp925
Rp926
F0.1
F0.7672413793103449
tp927
tp928
Rp929
ag1
(g2
g3
(g4
g56
F0.01
F0.7672131147540984
tp930
tp931
Rp932
ag1
(g2
g3
(g4
g881
F0.1
F0.7669172932330827
tp933
tp934
Rp935
ag1
(g2
g3
(g4
g5
(g9
S'\xa9\x13\xd0D\xd8\xf0\xf3?'
p936
tp937
Rp938
F0.1
F0.7662835249042146
tp939
tp940
Rp941
ag1
(g2
g3
(g4
g5
(g9
S'\xebs\xb5\x15\xfbK\x03@'
p942
tp943
Rp944
F0.1
F0.7661290322580644
tp945
tp946
Rp947
ag1
(g2
g3
(g4
g5
(g9
S'\xb2.n\xa3\x01\xbc\xd9?'
p948
tp949
Rp950
F0.1
F0.7659574468085105
tp951
tp952
Rp953
ag1
(g2
g3
(g4
g5
(g9
S'5\x80\xb7@\x82\xe2\x00@'
p954
tp955
Rp956
F0.1
F0.7657992565055762
tp957
tp958
Rp959
ag1
(g2
g3
(g4
g542
F0.01
F0.7654320987654321
tp960
tp961
Rp962
ag1
(g2
g3
(g4
g578
F0.01
F0.7645259938837919
tp963
tp964
Rp965
ag1
(g2
g3
(g4
g5
(g9
S'\xddF\x03x\x0b$\x0c@'
p966
tp967
Rp968
F0.01
F0.7645259938837919
tp969
tp970
Rp971
ag1
(g2
g3
(g4
g815
F0.01
F0.7638888888888888
tp972
tp973
Rp974
ag1
(g2
g3
(g4
g5
(g9
S'\x8euq\x1b\r\xe0\xfe?'
p975
tp976
Rp977
F0.1
F0.7637795275590551
tp978
tp979
Rp980
ag1
(g2
g3
(g4
g5
(g9
S'K\xea\x044\x116\n@'
p981
tp982
Rp983
F0.1
F0.7637795275590551
tp984
tp985
Rp986
ag1
(g2
g3
(g4
g5
(g9
S'\x1a\xe2X\x17\xb7\xd1\x0b@'
p987
tp988
Rp989
F0.1
F0.763779527559055
tp990
tp991
Rp992
ag1
(g2
g3
(g4
g5
(g9
S'j\xbct\x93\x18\x04\xd2?'
p993
tp994
Rp995
F0.1
F0.7633587786259541
tp996
tp997
Rp998
ag1
(g2
g3
(g4
g5
(g9
S'\xcf\xf7S\xe3\xa5\x9b\xb4?'
p999
tp1000
Rp1001
F0.1
F0.7632508833922261
tp1002
tp1003
Rp1004
ag1
(g2
g3
(g4
g5
(g9
S'\xa5,C\x1c\xeb\xe2\xce?'
p1005
tp1006
Rp1007
F0.1
F0.762589928057554
tp1008
tp1009
Rp1010
ag1
(g2
g3
(g4
g5
(g9
S'm\xc5\xfe\xb2{\xf2\xec?'
p1011
tp1012
Rp1013
F0.1
F0.7622641509433963
tp1014
tp1015
Rp1016
ag1
(g2
g3
(g4
g5
(g9
S'v\xe0\x9c\x11\xa5\xbd\xc9?'
p1017
tp1018
Rp1019
F0.1
F0.7622641509433962
tp1020
tp1021
Rp1022
ag1
(g2
g3
(g4
g5
(g9
S'\x88c]\xdcF\x03\xe2?'
p1023
tp1024
Rp1025
F0.01
F0.7622149837133552
tp1026
tp1027
Rp1028
ag1
(g2
g3
(g4
g5
(g9
S'\x10\xe9\xb7\xaf\x03g\x00@'
p1029
tp1030
Rp1031
F0.1
F0.7619047619047618
tp1032
tp1033
Rp1034
ag1
(g2
g3
(g4
g5
(g9
S'\xd7\xa3p=\n\xd7\xff?'
p1035
tp1036
Rp1037
F0.01
F0.7616099071207431
tp1038
tp1039
Rp1040
ag1
(g2
g3
(g4
g284
F0.001
F0.7613293051359517
tp1041
tp1042
Rp1043
ag1
(g2
g3
(g4
g98
F0.01
F0.7612903225806451
tp1044
tp1045
Rp1046
ag1
(g2
g3
(g4
g44
F0.001
F0.761006289308176
tp1047
tp1048
Rp1049
ag1
(g2
g3
(g4
g5
(g9
S'W}\xae\xb6b\x7f\x0b@'
p1050
tp1051
Rp1052
F0.1
F0.7608695652173914
tp1053
tp1054
Rp1055
ag1
(g2
g3
(g4
g218
F0.001
F0.7607361963190183
tp1056
tp1057
Rp1058
ag1
(g2
g3
(g4
g5
(g9
S'\x01M\x84\rO\xaf\x94?'
p1059
tp1060
Rp1061
F0.1
F0.76056338028169
tp1062
tp1063
Rp1064
ag1
(g2
g3
(g4
g386
F0.001
F0.7604790419161676
tp1065
tp1066
Rp1067
ag1
(g2
g3
(g4
g5
(g9
S'\x89c]\xdcF\x83\x06@'
p1068
tp1069
Rp1070
F0.1
F0.7604562737642586
tp1071
tp1072
Rp1073
ag1
(g2
g3
(g4
g566
F0.001
F0.7603833865814696
tp1074
tp1075
Rp1076
ag1
(g2
g3
(g4
g5
(g9
S'\xd5\xe7j+\xf6\x97\xdd?'
p1077
tp1078
Rp1079
F0.1
F0.7601476014760148
tp1080
tp1081
Rp1082
ag1
(g2
g3
(g4
g326
F0.01
F0.7601246105919003
tp1083
tp1084
Rp1085
ag1
(g2
g3
(g4
g5
(g9
S"'1\x08\xac\x1cZ\x06@"
p1086
tp1087
Rp1088
F0.1
F0.76
tp1089
tp1090
Rp1091
ag1
(g2
g3
(g4
g5
(g9
S'{\x14\xaeG\xe1\xfa\x0b@'
p1092
tp1093
Rp1094
F0.1
F0.76
tp1095
tp1096
Rp1097
ag1
(g2
g3
(g4
g692
F0.001
F0.7598784194528876
tp1098
tp1099
Rp1100
ag1
(g2
g3
(g4
g5
(g9
S'\xb8\xaf\x03\xe7\x8c(\xe7?'
p1101
tp1102
Rp1103
F0.1
F0.7596899224806202
tp1104
tp1105
Rp1106
ag1
(g2
g3
(g4
g686
F0.01
F0.7593220338983051
tp1107
tp1108
Rp1109
ag1
(g2
g3
(g4
g638
F0.01
F0.759075907590759
tp1110
tp1111
Rp1112
ag1
(g2
g3
(g4
g554
F0.01
F0.759075907590759
tp1113
tp1114
Rp1115
ag1
(g2
g3
(g4
g626
F0.01
F0.7586206896551725
tp1116
tp1117
Rp1118
ag1
(g2
g3
(g4
g5
(g9
S'M\xa6\nF%u\x03@'
p1119
tp1120
Rp1121
F0.01
F0.7584097859327217
tp1122
tp1123
Rp1124
ag1
(g2
g3
(g4
g380
F0.001
F0.7581699346405228
tp1125
tp1126
Rp1127
ag1
(g2
g3
(g4
g5
(g9
S'\x03\x9a\x08\x1b\x9e\xde\x05@'
p1128
tp1129
Rp1130
F0.1
F0.7580645161290323
tp1131
tp1132
Rp1133
ag1
(g2
g3
(g4
g710
F0.001
F0.7579617834394905
tp1134
tp1135
Rp1136
ag1
(g2
g3
(g4
g5
(g9
S'\xd3o_\x07\xce\x19\x04@'
p1137
tp1138
Rp1139
F0.1
F0.7578125
tp1140
tp1141
Rp1142
ag1
(g2
g3
(g4
g1037
F0.1
F0.7578124999999999
tp1143
tp1144
Rp1145
ag1
(g2
g3
(g4
g5
(g9
S'\x1b\xc0[ Aq\x08@'
p1146
tp1147
Rp1148
F0.1
F0.7575757575757576
tp1149
tp1150
Rp1151
ag1
(g2
g3
(g4
g845
F0.001
F0.7569230769230768
tp1152
tp1153
Rp1154
ag1
(g2
g3
(g4
g5
(g9
S'\xa1\x89\xb0\xe1\xe9\x15\t@'
p1155
tp1156
Rp1157
F0.01
F0.7567567567567568
tp1158
tp1159
Rp1160
ag1
(g2
g3
(g4
g5
(g9
S'\xe4\xf2\x1f\xd2o_\xfa?'
p1161
tp1162
Rp1163
F0.1
F0.7565543071161049
tp1164
tp1165
Rp1166
ag1
(g2
g3
(g4
g470
F0.01
F0.7564102564102563
tp1167
tp1168
Rp1169
ag1
(g2
g3
(g4
g20
F0.01
F0.75625
tp1170
tp1171
Rp1172
ag1
(g2
g3
(g4
g5
(g9
S'}\xd0\xb3Y\xf59\x05@'
p1173
tp1174
Rp1175
F0.01
F0.75625
tp1176
tp1177
Rp1178
ag1
(g2
g3
(g4
g452
F0.001
F0.7548387096774194
tp1179
tp1180
Rp1181
ag1
(g2
g3
(g4
g650
F0.001
F0.7548387096774194
tp1182
tp1183
Rp1184
ag1
(g2
g3
(g4
g512
F0.01
F0.7547169811320755
tp1185
tp1186
Rp1187
ag1
(g2
g3
(g4
g5
(g9
S'\xe9\xb7\xaf\x03\xe7\x0c\n@'
p1188
tp1189
Rp1190
F0.1
F0.7543859649122807
tp1191
tp1192
Rp1193
ag1
(g2
g3
(g4
g128
F0.01
F0.7540983606557378
tp1194
tp1195
Rp1196
ag1
(g2
g3
(g4
g758
F0.001
F0.7539936102236421
tp1197
tp1198
Rp1199
ag1
(g2
g3
(g4
g1061
F0.01
F0.7532467532467533
tp1200
tp1201
Rp1202
ag1
(g2
g3
(g4
g5
(g9
S'|\xf2\xb0Pk\x9a\x08@'
p1203
tp1204
Rp1205
F0.01
F0.7532467532467533
tp1206
tp1207
Rp1208
ag1
(g2
g3
(g4
g920
F0.01
F0.7531645569620252
tp1209
tp1210
Rp1211
ag1
(g2
g3
(g4
g5
(g9
S'\x8aA`\xe5\xd0"\x03@'
p1212
tp1213
Rp1214
F0.1
F0.7531380753138076
tp1215
tp1216
Rp1217
ag1
(g2
g3
(g4
g182
F0.001
F0.752542372881356
tp1218
tp1219
Rp1220
ag1
(g2
g3
(g4
g158
F0.001
F0.7523510971786833
tp1221
tp1222
Rp1223
ag1
(g2
g3
(g4
g968
F0.1
F0.7521367521367521
tp1224
tp1225
Rp1226
ag1
(g2
g3
(g4
g302
F0.01
F0.75177304964539
tp1227
tp1228
Rp1229
ag1
(g2
g3
(g4
g5
(g9
S'\xa7W\xca2\xc4\xb1\xfa?'
p1230
tp1231
Rp1232
F0.1
F0.7509881422924901
tp1233
tp1234
Rp1235
ag1
(g2
g3
(g4
g530
F0.01
F0.7508305647840532
tp1236
tp1237
Rp1238
ag1
(g2
g3
(g4
g38
F0.01
F0.7508090614886732
tp1239
tp1240
Rp1241
ag1
(g2
g3
(g4
g482
F0.01
F0.7508090614886732
tp1242
tp1243
Rp1244
ag1
(g2
g3
(g4
g827
F0.001
F0.750788643533123
tp1245
tp1246
Rp1247
ag1
(g2
g3
(g4
g1121
F0.001
F0.750788643533123
tp1248
tp1249
Rp1250
ag1
(g2
g3
(g4
g1070
F0.001
F0.7507692307692309
tp1251
tp1252
Rp1253
ag1
(g2
g3
(g4
g1157
F0.1
F0.7500000000000001
tp1254
tp1255
Rp1256
ag1
(g2
g3
(g4
g5
(g9
S'\xd3Mb\x10X\xb9\x00@'
p1257
tp1258
Rp1259
F0.1
F0.75
tp1260
tp1261
Rp1262
ag1
(g2
g3
(g4
g386
F0.01
F0.7499999999999999
tp1263
tp1264
Rp1265
ag1
(g2
g3
(g4
g1088
F0.01
F0.7499999999999999
tp1266
tp1267
Rp1268
ag1
(g2
g3
(g4
g434
F0.01
F0.7499999999999999
tp1269
tp1270
Rp1271
ag1
(g2
g3
(g4
g62
F0.001
F0.7499999999999999
tp1272
tp1273
Rp1274
ag1
(g2
g3
(g4
g218
F0.01
F0.7492447129909365
tp1275
tp1276
Rp1277
ag1
(g2
g3
(g4
g320
F0.001
F0.7492260061919503
tp1278
tp1279
Rp1280
ag1
(g2
g3
(g4
g440
F0.01
F0.7492260061919503
tp1281
tp1282
Rp1283
ag1
(g2
g3
(g4
g254
F0.001
F0.7492063492063492
tp1284
tp1285
Rp1286
ag1
(g2
g3
(g4
g908
F0.01
F0.749185667752443
tp1287
tp1288
Rp1289
ag1
(g2
g3
(g4
g5
(g9
S'&S\x05\xa3\x92:\xe5?'
p1290
tp1291
Rp1292
F0.1
F0.7490039840637451
tp1293
tp1294
Rp1295
ag1
(g2
g3
(g4
g224
F0.01
F0.7483443708609272
tp1296
tp1297
Rp1298
ag1
(g2
g3
(g4
g5
(g9
S'\xc4B\xadi\xde\xf1\x0c@'
p1299
tp1300
Rp1301
F0.1
F0.7479674796747967
tp1302
tp1303
Rp1304
ag1
(g2
g3
(g4
g326
F0.001
F0.7477744807121661
tp1305
tp1306
Rp1307
ag1
(g2
g3
(g4
g1094
F0.001
F0.7477203647416413
tp1308
tp1309
Rp1310
ag1
(g2
g3
(g4
g434
F0.001
F0.7476635514018691
tp1311
tp1312
Rp1313
ag1
(g2
g3
(g4
g821
F0.001
F0.7476038338658146
tp1314
tp1315
Rp1316
ag1
(g2
g3
(g4
g44
F0.01
F0.7476038338658146
tp1317
tp1318
Rp1319
ag1
(g2
g3
(g4
g38
F0.001
F0.7476038338658146
tp1320
tp1321
Rp1322
ag1
(g2
g3
(g4
g392
F0.001
F0.7476038338658146
tp1323
tp1324
Rp1325
ag1
(g2
g3
(g4
g14
F0.01
F0.7475409836065573
tp1326
tp1327
Rp1328
ag1
(g2
g3
(g4
g116
F0.001
F0.7469135802469136
tp1329
tp1330
Rp1331
ag1
(g2
g3
(g4
g638
F0.001
F0.7469135802469136
tp1332
tp1333
Rp1334
ag1
(g2
g3
(g4
g5
(g9
S'\xe1z\x14\xaeG\xe1\xde?'
p1335
tp1336
Rp1337
F0.01
F0.7467532467532468
tp1338
tp1339
Rp1340
ag1
(g2
g3
(g4
g5
(g9
S'\x02\x9a\x08\x1b\x9e^\xe1?'
p1341
tp1342
Rp1343
F0.01
F0.7467532467532468
tp1344
tp1345
Rp1346
ag1
(g2
g3
(g4
g656
F0.001
F0.7467532467532468
tp1347
tp1348
Rp1349
ag1
(g2
g3
(g4
g902
F0.01
F0.7467532467532468
tp1350
tp1351
Rp1352
ag1
(g2
g3
(g4
g128
F0.001
F0.7459807073954984
tp1353
tp1354
Rp1355
ag1
(g2
g3
(g4
g308
F0.001
F0.7458745874587459
tp1356
tp1357
Rp1358
ag1
(g2
g3
(g4
g863
F0.01
F0.7458745874587459
tp1359
tp1360
Rp1361
ag1
(g2
g3
(g4
g1121
F0.1
F0.7457627118644068
tp1362
tp1363
Rp1364
ag1
(g2
g3
(g4
g1337
F0.1
F0.7456445993031359
tp1365
tp1366
Rp1367
ag1
(g2
g3
(g4
g104
F0.01
F0.7450980392156863
tp1368
tp1369
Rp1370
ag1
(g2
g3
(g4
g206
F0.001
F0.7450980392156863
tp1371
tp1372
Rp1373
ag1
(g2
g3
(g4
g1343
F0.1
F0.7447698744769874
tp1374
tp1375
Rp1376
ag1
(g2
g3
(g4
g1031
F0.001
F0.7446153846153846
tp1377
tp1378
Rp1379
ag1
(g2
g3
(g4
g728
F0.001
F0.7446153846153846
tp1380
tp1381
Rp1382
ag1
(g2
g3
(g4
g1025
F0.1
F0.744360902255639
tp1383
tp1384
Rp1385
ag1
(g2
g3
(g4
g338
F0.01
F0.744336569579288
tp1386
tp1387
Rp1388
ag1
(g2
g3
(g4
g797
F0.001
F0.744336569579288
tp1389
tp1390
Rp1391
ag1
(g2
g3
(g4
g740
F0.001
F0.744336569579288
tp1392
tp1393
Rp1394
ag1
(g2
g3
(g4
g728
F0.01
F0.7441860465116279
tp1395
tp1396
Rp1397
ag1
(g2
g3
(g4
g5
(g9
S'\xea\x95\xb2\x0cq\xac\x06@'
p1398
tp1399
Rp1400
F0.01
F0.7441860465116279
tp1401
tp1402
Rp1403
ag1
(g2
g3
(g4
g1088
F0.001
F0.7435897435897436
tp1404
tp1405
Rp1406
ag1
(g2
g3
(g4
g983
F0.01
F0.7430340557275542
tp1407
tp1408
Rp1409
ag1
(g2
g3
(g4
g650
F0.01
F0.7428571428571429
tp1410
tp1411
Rp1412
ag1
(g2
g3
(g4
g308
F0.01
F0.7424749163879599
tp1413
tp1414
Rp1415
ag1
(g2
g3
(g4
g1079
F0.001
F0.7423312883435582
tp1416
tp1417
Rp1418
ag1
(g2
g3
(g4
g5
(g9
S'>yX\xa85\xcd\xe7?'
p1419
tp1420
Rp1421
F0.01
F0.7421383647798743
tp1422
tp1423
Rp1424
ag1
(g2
g3
(g4
g620
F0.01
F0.7421383647798743
tp1425
tp1426
Rp1427
ag1
(g2
g3
(g4
g773
F0.01
F0.7419354838709677
tp1428
tp1429
Rp1430
ag1
(g2
g3
(g4
g1052
F0.01
F0.7419354838709677
tp1431
tp1432
Rp1433
ag1
(g2
g3
(g4
g1175
F0.1
F0.7419354838709676
tp1434
tp1435
Rp1436
ag1
(g2
g3
(g4
g821
F0.01
F0.7417218543046357
tp1437
tp1438
Rp1439
ag1
(g2
g3
(g4
g722
F0.001
F0.7414330218068536
tp1440
tp1441
Rp1442
ag1
(g2
g3
(g4
g152
F0.01
F0.7412140575079872
tp1443
tp1444
Rp1445
ag1
(g2
g3
(g4
g908
F0.001
F0.740983606557377
tp1446
tp1447
Rp1448
ag1
(g2
g3
(g4
g254
F0.01
F0.7407407407407407
tp1449
tp1450
Rp1451
ag1
(g2
g3
(g4
g5
(g9
S'Q\xda\x1b|a2\xff?'
p1452
tp1453
Rp1454
F0.001
F0.740506329113924
tp1455
tp1456
Rp1457
ag1
(g2
g3
(g4
g188
F0.001
F0.7402597402597402
tp1458
tp1459
Rp1460
ag1
(g2
g3
(g4
g779
F0.001
F0.7402597402597402
tp1461
tp1462
Rp1463
ag1
(g2
g3
(g4
g1343
F0.001
F0.7402597402597402
tp1464
tp1465
Rp1466
ag1
(g2
g3
(g4
g1292
F0.01
F0.7402597402597402
tp1467
tp1468
Rp1469
ag1
(g2
g3
(g4
g968
F0.001
F0.7402597402597402
tp1470
tp1471
Rp1472
ag1
(g2
g3
(g4
g1139
F0.01
F0.7400611620795107
tp1473
tp1474
Rp1475
ag1
(g2
g3
(g4
g26
F0.001
F0.7398119122257053
tp1476
tp1477
Rp1478
ag1
(g2
g3
(g4
g590
F0.01
F0.7395498392282959
tp1479
tp1480
Rp1481
ag1
(g2
g3
(g4
g230
F0.01
F0.7395498392282959
tp1482
tp1483
Rp1484
ag1
(g2
g3
(g4
g500
F0.01
F0.7395498392282959
tp1485
tp1486
Rp1487
ag1
(g2
g3
(g4
g5
(g9
S'`\xe5\xd0"\xdb\xf9\xf2?'
p1488
tp1489
Rp1490
F0.01
F0.7393939393939394
tp1491
tp1492
Rp1493
ag1
(g2
g3
(g4
g374
F0.01
F0.7392739273927392
tp1494
tp1495
Rp1496
ag1
(g2
g3
(g4
g410
F0.001
F0.7392739273927392
tp1497
tp1498
Rp1499
ag1
(g2
g3
(g4
g248
F0.01
F0.7392739273927392
tp1500
tp1501
Rp1502
ag1
(g2
g3
(g4
g494
F0.01
F0.7388535031847133
tp1503
tp1504
Rp1505
ag1
(g2
g3
(g4
g356
F0.01
F0.7388535031847133
tp1506
tp1507
Rp1508
ag1
(g2
g3
(g4
g56
F0.001
F0.738562091503268
tp1509
tp1510
Rp1511
ag1
(g2
g3
(g4
g1490
F0.1
F0.7384615384615385
tp1512
tp1513
Rp1514
ag1
(g2
g3
(g4
g5
(g9
S'3\xc4\xb1.n\xa3\x07@'
p1515
tp1516
Rp1517
F0.01
F0.7382550335570469
tp1518
tp1519
Rp1520
ag1
(g2
g3
(g4
g416
F0.01
F0.7382550335570469
tp1521
tp1522
Rp1523
ag1
(g2
g3
(g4
g779
F0.01
F0.7381703470031546
tp1524
tp1525
Rp1526
ag1
(g2
g3
(g4
g392
F0.01
F0.7378640776699029
tp1527
tp1528
Rp1529
ag1
(g2
g3
(g4
g1157
F0.001
F0.7378640776699029
tp1530
tp1531
Rp1532
ag1
(g2
g3
(g4
g809
F0.001
F0.7375415282392027
tp1533
tp1534
Rp1535
ag1
(g2
g3
(g4
g368
F0.001
F0.7374999999999999
tp1536
tp1537
Rp1538
ag1
(g2
g3
(g4
g50
F0.001
F0.7371794871794872
tp1539
tp1540
Rp1541
ag1
(g2
g3
(g4
g578
F0.001
F0.7371794871794872
tp1542
tp1543
Rp1544
ag1
(g2
g3
(g4
g944
F0.001
F0.7368421052631579
tp1545
tp1546
Rp1547
ag1
(g2
g3
(g4
g530
F0.001
F0.7365079365079366
tp1548
tp1549
Rp1550
ag1
(g2
g3
(g4
g470
F0.001
F0.7364864864864864
tp1551
tp1552
Rp1553
ag1
(g2
g3
(g4
g596
F0.01
F0.7361563517915309
tp1554
tp1555
Rp1556
ag1
(g2
g3
(g4
g938
F0.01
F0.7361563517915309
tp1557
tp1558
Rp1559
ag1
(g2
g3
(g4
g362
F0.001
F0.7361563517915309
tp1560
tp1561
Rp1562
ag1
(g2
g3
(g4
g500
F0.001
F0.7361563517915309
tp1563
tp1564
Rp1565
ag1
(g2
g3
(g4
g914
F0.01
F0.7357859531772576
tp1566
tp1567
Rp1568
ag1
(g2
g3
(g4
g1232
F0.01
F0.7357859531772576
tp1569
tp1570
Rp1571
ag1
(g2
g3
(g4
g62
F0.01
F0.7357859531772576
tp1572
tp1573
Rp1574
ag1
(g2
g3
(g4
g314
F0.001
F0.7354838709677418
tp1575
tp1576
Rp1577
ag1
(g2
g3
(g4
g524
F0.01
F0.7354838709677418
tp1578
tp1579
Rp1580
ag1
(g2
g3
(g4
g674
F0.001
F0.735202492211838
tp1581
tp1582
Rp1583
ag1
(g2
g3
(g4
g764
F0.001
F0.7345679012345678
tp1584
tp1585
Rp1586
ag1
(g2
g3
(g4
g938
F0.001
F0.7345679012345678
tp1587
tp1588
Rp1589
ag1
(g2
g3
(g4
g518
F0.01
F0.7345679012345678
tp1590
tp1591
Rp1592
ag1
(g2
g3
(g4
g803
F0.01
F0.7344262295081968
tp1593
tp1594
Rp1595
ag1
(g2
g3
(g4
g791
F0.01
F0.7344262295081967
tp1596
tp1597
Rp1598
ag1
(g2
g3
(g4
g773
F0.001
F0.7341772151898733
tp1599
tp1600
Rp1601
ag1
(g2
g3
(g4
g428
F0.01
F0.7341772151898733
tp1602
tp1603
Rp1604
ag1
(g2
g3
(g4
g266
F0.01
F0.7341772151898733
tp1605
tp1606
Rp1607
ag1
(g2
g3
(g4
g170
F0.01
F0.7337662337662337
tp1608
tp1609
Rp1610
ag1
(g2
g3
(g4
g224
F0.001
F0.7337662337662337
tp1611
tp1612
Rp1613
ag1
(g2
g3
(g4
g134
F0.001
F0.7333333333333334
tp1614
tp1615
Rp1616
ag1
(g2
g3
(g4
g518
F0.001
F0.7333333333333334
tp1617
tp1618
Rp1619
ag1
(g2
g3
(g4
g809
F0.01
F0.7333333333333334
tp1620
tp1621
Rp1622
ag1
(g2
g3
(g4
g752
F0.01
F0.7331189710610932
tp1623
tp1624
Rp1625
ag1
(g2
g3
(g4
g398
F0.01
F0.7331189710610932
tp1626
tp1627
Rp1628
ag1
(g2
g3
(g4
g5
(g9
S'\xc19#J{\x83\xf6?'
p1629
tp1630
Rp1631
F0.1
F0.7330677290836652
tp1632
tp1633
Rp1634
ag1
(g2
g3
(g4
g536
F0.01
F0.7326732673267327
tp1635
tp1636
Rp1637
ag1
(g2
g3
(g4
g1421
F0.001
F0.732484076433121
tp1638
tp1639
Rp1640
ag1
(g2
g3
(g4
g176
F0.001
F0.732484076433121
tp1641
tp1642
Rp1643
ag1
(g2
g3
(g4
g740
F0.01
F0.732484076433121
tp1644
tp1645
Rp1646
ag1
(g2
g3
(g4
g944
F0.01
F0.732394366197183
tp1647
tp1648
Rp1649
ag1
(g2
g3
(g4
g110
F0.001
F0.7323076923076923
tp1650
tp1651
Rp1652
ag1
(g2
g3
(g4
g512
F0.001
F0.7323076923076923
tp1653
tp1654
Rp1655
ag1
(g2
g3
(g4
g785
F0.01
F0.7320261437908496
tp1656
tp1657
Rp1658
ag1
(g2
g3
(g4
g584
F0.001
F0.7318611987381703
tp1659
tp1660
Rp1661
ag1
(g2
g3
(g4
g92
F0.01
F0.7315436241610739
tp1662
tp1663
Rp1664
ag1
(g2
g3
(g4
g803
F0.001
F0.7313915857605179
tp1665
tp1666
Rp1667
ag1
(g2
g3
(g4
g764
F0.01
F0.7313915857605179
tp1668
tp1669
Rp1670
ag1
(g2
g3
(g4
g332
F0.01
F0.7313915857605179
tp1671
tp1672
Rp1673
ag1
(g2
g3
(g4
g902
F0.001
F0.7313915857605179
tp1674
tp1675
Rp1676
ag1
(g2
g3
(g4
g272
F0.01
F0.7312500000000001
tp1677
tp1678
Rp1679
ag1
(g2
g3
(g4
g1094
F0.01
F0.7308970099667774
tp1680
tp1681
Rp1682
ag1
(g2
g3
(g4
g704
F0.01
F0.7308970099667774
tp1683
tp1684
Rp1685
ag1
(g2
g3
(g4
g26
F0.01
F0.7307692307692308
tp1686
tp1687
Rp1688
ag1
(g2
g3
(g4
g620
F0.001
F0.7307692307692308
tp1689
tp1690
Rp1691
ag1
(g2
g3
(g4
g1631
F0.001
F0.7306501547987615
tp1692
tp1693
Rp1694
ag1
(g2
g3
(g4
g1259
F0.001
F0.7306501547987615
tp1695
tp1696
Rp1697
ag1
(g2
g3
(g4
g833
F0.01
F0.7302631578947368
tp1698
tp1699
Rp1700
ag1
(g2
g3
(g4
g242
F0.01
F0.7302631578947368
tp1701
tp1702
Rp1703
ag1
(g2
g3
(g4
g5
(g9
S'\xd0\xd5V\xec/;\x0e@'
p1704
tp1705
Rp1706
F0.001
F0.7302631578947368
tp1707
tp1708
Rp1709
ag1
(g2
g3
(g4
g194
F0.01
F0.7301587301587301
tp1710
tp1711
Rp1712
ag1
(g2
g3
(g4
g182
F0.01
F0.7301587301587301
tp1713
tp1714
Rp1715
ag1
(g2
g3
(g4
g152
F0.001
F0.7301587301587301
tp1716
tp1717
Rp1718
ag1
(g2
g3
(g4
g464
F0.01
F0.7297297297297298
tp1719
tp1720
Rp1721
ag1
(g2
g3
(g4
g1190
F0.01
F0.7297297297297298
tp1722
tp1723
Rp1724
ag1
(g2
g3
(g4
g362
F0.01
F0.7296416938110749
tp1725
tp1726
Rp1727
ag1
(g2
g3
(g4
g626
F0.001
F0.7296416938110749
tp1728
tp1729
Rp1730
ag1
(g2
g3
(g4
g734
F0.001
F0.7295597484276729
tp1731
tp1732
Rp1733
ag1
(g2
g3
(g4
g1301
F0.001
F0.7295597484276729
tp1734
tp1735
Rp1736
ag1
(g2
g3
(g4
g206
F0.01
F0.7290322580645162
tp1737
tp1738
Rp1739
ag1
(g2
g3
(g4
g686
F0.001
F0.7290322580645162
tp1740
tp1741
Rp1742
ag1
(g2
g3
(g4
g194
F0.001
F0.7289719626168224
tp1743
tp1744
Rp1745
ag1
(g2
g3
(g4
g662
F0.001
F0.7289719626168224
tp1746
tp1747
Rp1748
ag1
(g2
g3
(g4
g896
F0.001
F0.7289719626168224
tp1749
tp1750
Rp1751
ag1
(g2
g3
(g4
g1400
F0.1
F0.7288135593220338
tp1752
tp1753
Rp1754
ag1
(g2
g3
(g4
g524
F0.001
F0.728476821192053
tp1755
tp1756
Rp1757
ag1
(g2
g3
(g4
g602
F0.001
F0.7284345047923323
tp1758
tp1759
Rp1760
ag1
(g2
g3
(g4
g146
F0.001
F0.7284345047923323
tp1761
tp1762
Rp1763
ag1
(g2
g3
(g4
g410
F0.01
F0.7284345047923323
tp1764
tp1765
Rp1766
ag1
(g2
g3
(g4
g1031
F0.01
F0.7284345047923323
tp1767
tp1768
Rp1769
ag1
(g2
g3
(g4
g5
(g9
S'\xe0\xbe\x0e\x9c3\xa2\xa4?'
p1770
tp1771
Rp1772
F0.1
F0.7279411764705883
tp1773
tp1774
Rp1775
ag1
(g2
g3
(g4
g926
F0.01
F0.7278688524590163
tp1776
tp1777
Rp1778
ag1
(g2
g3
(g4
g86
F0.01
F0.7278688524590163
tp1779
tp1780
Rp1781
ag1
(g2
g3
(g4
g863
F0.001
F0.7278688524590163
tp1782
tp1783
Rp1784
ag1
(g2
g3
(g4
g5
(g9
S'o\x81\x04\xc5\x8f\xb1\n@'
p1785
tp1786
Rp1787
F0.1
F0.7272727272727273
tp1788
tp1789
Rp1790
ag1
(g2
g3
(g4
g32
F0.01
F0.7272727272727273
tp1791
tp1792
Rp1793
ag1
(g2
g3
(g4
g560
F0.01
F0.7272727272727273
tp1794
tp1795
Rp1796
ag1
(g2
g3
(g4
g488
F0.001
F0.7267080745341614
tp1797
tp1798
Rp1799
ag1
(g2
g3
(g4
g1019
F0.001
F0.7266881028938906
tp1800
tp1801
Rp1802
ag1
(g2
g3
(g4
g536
F0.001
F0.7266881028938906
tp1803
tp1804
Rp1805
ag1
(g2
g3
(g4
g5
(g9
S'-C\x1c\xeb\xe26\x1a?'
p1806
tp1807
Rp1808
F0.1
F0.7266666666666666
tp1809
tp1810
Rp1811
ag1
(g2
g3
(g4
g680
F0.001
F0.7261538461538461
tp1812
tp1813
Rp1814
ag1
(g2
g3
(g4
g632
F0.001
F0.7261538461538461
tp1815
tp1816
Rp1817
ag1
(g2
g3
(g4
g950
F0.01
F0.7261146496815287
tp1818
tp1819
Rp1820
ag1
(g2
g3
(g4
g950
F0.001
F0.7261146496815287
tp1821
tp1822
Rp1823
ag1
(g2
g3
(g4
g380
F0.01
F0.7260726072607261
tp1824
tp1825
Rp1826
ag1
(g2
g3
(g4
g296
F0.01
F0.7260726072607261
tp1827
tp1828
Rp1829
ag1
(g2
g3
(g4
g914
F0.001
F0.7254901960784313
tp1830
tp1831
Rp1832
ag1
(g2
g3
(g4
g1631
F0.01
F0.7254237288135594
tp1833
tp1834
Rp1835
ag1
(g2
g3
(g4
g1301
F0.01
F0.7254237288135594
tp1836
tp1837
Rp1838
ag1
(g2
g3
(g4
g140
F0.001
F0.725
tp1839
tp1840
Rp1841
ag1
(g2
g3
(g4
g854
F0.01
F0.7249190938511327
tp1842
tp1843
Rp1844
ag1
(g2
g3
(g4
g758
F0.01
F0.7248322147651006
tp1845
tp1846
Rp1847
ag1
(g2
g3
(g4
g338
F0.001
F0.7238095238095238
tp1848
tp1849
Rp1850
ag1
(g2
g3
(g4
g692
F0.01
F0.7236842105263158
tp1851
tp1852
Rp1853
ag1
(g2
g3
(g4
g320
F0.01
F0.7231270358306189
tp1854
tp1855
Rp1856
ag1
(g2
g3
(g4
g668
F0.001
F0.7231270358306189
tp1857
tp1858
Rp1859
ag1
(g2
g3
(g4
g704
F0.001
F0.7231270358306189
tp1860
tp1861
Rp1862
ag1
(g2
g3
(g4
g284
F0.01
F0.7227414330218067
tp1863
tp1864
Rp1865
ag1
(g2
g3
(g4
g452
F0.01
F0.7224080267558529
tp1866
tp1867
Rp1868
ag1
(g2
g3
(g4
g1232
F0.001
F0.7222222222222222
tp1869
tp1870
Rp1871
ag1
(g2
g3
(g4
g785
F0.001
F0.7222222222222222
tp1872
tp1873
Rp1874
ag1
(g2
g3
(g4
g995
F0.01
F0.7220447284345047
tp1875
tp1876
Rp1877
ag1
(g2
g3
(g4
g1787
F0.001
F0.7220447284345047
tp1878
tp1879
Rp1880
ag1
(g2
g3
(g4
g92
F0.001
F0.7220447284345047
tp1881
tp1882
Rp1883
ag1
(g2
g3
(g4
g698
F0.001
F0.7218543046357616
tp1884
tp1885
Rp1886
ag1
(g2
g3
(g4
g1205
F0.001
F0.7218543046357616
tp1887
tp1888
Rp1889
ag1
(g2
g3
(g4
g80
F0.001
F0.7215189873417721
tp1890
tp1891
Rp1892
ag1
(g2
g3
(g4
g1139
F0.001
F0.7215189873417721
tp1893
tp1894
Rp1895
ag1
(g2
g3
(g4
g674
F0.01
F0.7215189873417721
tp1896
tp1897
Rp1898
ag1
(g2
g3
(g4
g188
F0.01
F0.7213114754098361
tp1899
tp1900
Rp1901
ag1
(g2
g3
(g4
g200
F0.001
F0.7210884353741497
tp1902
tp1903
Rp1904
ag1
(g2
g3
(g4
g989
F0.01
F0.7210884353741497
tp1905
tp1906
Rp1907
ag1
(g2
g3
(g4
g1517
F0.1
F0.7210300429184548
tp1908
tp1909
Rp1910
ag1
(g2
g3
(g4
g314
F0.01
F0.7210031347962382
tp1911
tp1912
Rp1913
ag1
(g2
g3
(g4
g1190
F0.001
F0.7207792207792209
tp1914
tp1915
Rp1916
ag1
(g2
g3
(g4
g200
F0.01
F0.7205387205387205
tp1917
tp1918
Rp1919
ag1
(g2
g3
(g4
g995
F0.001
F0.7202572347266881
tp1920
tp1921
Rp1922
ag1
(g2
g3
(g4
g926
F0.001
F0.7202572347266881
tp1923
tp1924
Rp1925
ag1
(g2
g3
(g4
g1706
F0.01
F0.7202572347266881
tp1926
tp1927
Rp1928
ag1
(g2
g3
(g4
g488
F0.01
F0.72
tp1929
tp1930
Rp1931
ag1
(g2
g3
(g4
g1079
F0.01
F0.7197231833910035
tp1932
tp1933
Rp1934
ag1
(g2
g3
(g4
g845
F0.01
F0.7194719471947195
tp1935
tp1936
Rp1937
ag1
(g2
g3
(g4
g476
F0.001
F0.7192429022082019
tp1938
tp1939
Rp1940
ag1
(g2
g3
(g4
g332
F0.001
F0.7192429022082019
tp1941
tp1942
Rp1943
ag1
(g2
g3
(g4
g494
F0.001
F0.7192429022082019
tp1944
tp1945
Rp1946
ag1
(g2
g3
(g4
g506
F0.001
F0.7189542483660131
tp1947
tp1948
Rp1949
ag1
(g2
g3
(g4
g446
F0.001
F0.7189542483660131
tp1950
tp1951
Rp1952
ag1
(g2
g3
(g4
g68
F0.01
F0.7189542483660131
tp1953
tp1954
Rp1955
ag1
(g2
g3
(g4
g140
F0.01
F0.7189542483660131
tp1956
tp1957
Rp1958
ag1
(g2
g3
(g4
g74
F0.01
F0.7188612099644128
tp1959
tp1960
Rp1961
ag1
(g2
g3
(g4
g602
F0.01
F0.71875
tp1962
tp1963
Rp1964
ag1
(g2
g3
(g4
g833
F0.001
F0.71875
tp1965
tp1966
Rp1967
ag1
(g2
g3
(g4
g344
F0.001
F0.71864406779661
tp1968
tp1969
Rp1970
ag1
(g2
g3
(g4
g644
F0.01
F0.7184466019417476
tp1971
tp1972
Rp1973
ag1
(g2
g3
(g4
g698
F0.01
F0.7181208053691275
tp1974
tp1975
Rp1976
ag1
(g2
g3
(g4
g104
F0.001
F0.717948717948718
tp1977
tp1978
Rp1979
ag1
(g2
g3
(g4
g869
F0.01
F0.717948717948718
tp1980
tp1981
Rp1982
ag1
(g2
g3
(g4
g20
F0.001
F0.717607973421927
tp1983
tp1984
Rp1985
ag1
(g2
g3
(g4
g290
F0.001
F0.7174603174603175
tp1986
tp1987
Rp1988
ag1
(g2
g3
(g4
g506
F0.01
F0.7174603174603174
tp1989
tp1990
Rp1991
ag1
(g2
g3
(g4
g875
F0.01
F0.7171052631578948
tp1992
tp1993
Rp1994
ag1
(g2
g3
(g4
g260
F0.001
F0.7171052631578948
tp1995
tp1996
Rp1997
ag1
(g2
g3
(g4
g176
F0.01
F0.7171052631578948
tp1998
tp1999
Rp2000
ag1
(g2
g3
(g4
g1070
F0.01
F0.7167235494880545
tp2001
tp2002
Rp2003
ag1
(g2
g3
(g4
g80
F0.01
F0.7166123778501629
tp2004
tp2005
Rp2006
ag1
(g2
g3
(g4
g146
F0.01
F0.7165109034267912
tp2007
tp2008
Rp2009
ag1
(g2
g3
(g4
g614
F0.01
F0.7161290322580646
tp2010
tp2011
Rp2012
ag1
(g2
g3
(g4
g614
F0.001
F0.7161290322580646
tp2013
tp2014
Rp2015
ag1
(g2
g3
(g4
g1787
F0.01
F0.7152777777777777
tp2016
tp2017
Rp2018
ag1
(g2
g3
(g4
g746
F0.01
F0.7152317880794702
tp2019
tp2020
Rp2021
ag1
(g2
g3
(g4
g983
F0.001
F0.7147540983606557
tp2022
tp2023
Rp2024
ag1
(g2
g3
(g4
g989
F0.001
F0.7147335423197493
tp2025
tp2026
Rp2027
ag1
(g2
g3
(g4
g815
F0.001
F0.7147335423197493
tp2028
tp2029
Rp2030
ag1
(g2
g3
(g4
g956
F0.01
F0.7142857142857143
tp2031
tp2032
Rp2033
ag1
(g2
g3
(g4
g14
F0.001
F0.7138461538461539
tp2034
tp2035
Rp2036
ag1
(g2
g3
(g4
g656
F0.01
F0.7138263665594855
tp2037
tp2038
Rp2039
ag1
(g2
g3
(g4
g374
F0.001
F0.713375796178344
tp2040
tp2041
Rp2042
ag1
(g2
g3
(g4
g290
F0.01
F0.7133333333333333
tp2043
tp2044
Rp2045
ag1
(g2
g3
(g4
g122
F0.01
F0.712871287128713
tp2046
tp2047
Rp2048
ag1
(g2
g3
(g4
g422
F0.001
F0.7124183006535948
tp2049
tp2050
Rp2051
ag1
(g2
g3
(g4
g854
F0.001
F0.7119741100323624
tp2052
tp2053
Rp2054
ag1
(g2
g3
(g4
g1214
F0.01
F0.711864406779661
tp2055
tp2056
Rp2057
ag1
(g2
g3
(g4
g296
F0.001
F0.711864406779661
tp2058
tp2059
Rp2060
ag1
(g2
g3
(g4
g827
F0.01
F0.7114093959731544
tp2061
tp2062
Rp2063
ag1
(g2
g3
(g4
g116
F0.01
F0.7114093959731543
tp2064
tp2065
Rp2066
ag1
(g2
g3
(g4
g1007
F0.01
F0.7114093959731543
tp2067
tp2068
Rp2069
ag1
(g2
g3
(g4
g212
F0.01
F0.7114093959731543
tp2070
tp2071
Rp2072
ag1
(g2
g3
(g4
g458
F0.01
F0.7114093959731543
tp2073
tp2074
Rp2075
ag1
(g2
g3
(g4
g584
F0.01
F0.7114093959731543
tp2076
tp2077
Rp2078
ag1
(g2
g3
(g4
g875
F0.001
F0.7111111111111111
tp2079
tp2080
Rp2081
ag1
(g2
g3
(g4
g164
F0.001
F0.7111111111111111
tp2082
tp2083
Rp2084
ag1
(g2
g3
(g4
g680
F0.01
F0.7109634551495017
tp2085
tp2086
Rp2087
ag1
(g2
g3
(g4
g110
F0.01
F0.7109634551495017
tp2088
tp2089
Rp2090
ag1
(g2
g3
(g4
g1454
F0.1
F0.7109375000000001
tp2091
tp2092
Rp2093
ag1
(g2
g3
(g4
g839
F0.001
F0.7108013937282229
tp2094
tp2095
Rp2096
ag1
(g2
g3
(g4
g572
F0.001
F0.7106918238993711
tp2097
tp2098
Rp2099
ag1
(g2
g3
(g4
g482
F0.001
F0.7102803738317757
tp2100
tp2101
Rp2102
ag1
(g2
g3
(g4
g302
F0.001
F0.7094594594594594
tp2103
tp2104
Rp2105
ag1
(g2
g3
(g4
g1148
F0.01
F0.7092651757188498
tp2106
tp2107
Rp2108
ag1
(g2
g3
(g4
g977
F0.001
F0.7090301003344481
tp2109
tp2110
Rp2111
ag1
(g2
g3
(g4
g278
F0.01
F0.7086092715231789
tp2112
tp2113
Rp2114
ag1
(g2
g3
(g4
g1259
F0.01
F0.7086092715231789
tp2115
tp2116
Rp2117
ag1
(g2
g3
(g4
g158
F0.01
F0.7086092715231789
tp2118
tp2119
Rp2120
ag1
(g2
g3
(g4
g1214
F0.001
F0.7084639498432602
tp2121
tp2122
Rp2123
ag1
(g2
g3
(g4
g722
F0.01
F0.7083333333333333
tp2124
tp2125
Rp2126
ag1
(g2
g3
(g4
g1103
F0.001
F0.7081967213114755
tp2127
tp2128
Rp2129
ag1
(g2
g3
(g4
g896
F0.01
F0.7081967213114755
tp2130
tp2131
Rp2132
ag1
(g2
g3
(g4
g164
F0.01
F0.7081967213114755
tp2133
tp2134
Rp2135
ag1
(g2
g3
(g4
g74
F0.001
F0.7080745341614907
tp2136
tp2137
Rp2138
ag1
(g2
g3
(g4
g734
F0.01
F0.7077922077922079
tp2139
tp2140
Rp2141
ag1
(g2
g3
(g4
g1454
F0.01
F0.707482993197279
tp2142
tp2143
Rp2144
ag1
(g2
g3
(g4
g212
F0.001
F0.7073954983922829
tp2145
tp2146
Rp2147
ag1
(g2
g3
(g4
g1001
F0.01
F0.7070063694267515
tp2148
tp2149
Rp2150
ag1
(g2
g3
(g4
g1103
F0.01
F0.7066666666666667
tp2151
tp2152
Rp2153
ag1
(g2
g3
(g4
g260
F0.01
F0.7066666666666667
tp2154
tp2155
Rp2156
ag1
(g2
g3
(g4
g1175
F0.001
F0.7066666666666667
tp2157
tp2158
Rp2159
ag1
(g2
g3
(g4
g98
F0.001
F0.7066246056782335
tp2160
tp2161
Rp2162
ag1
(g2
g3
(g4
g1400
F0.001
F0.7066246056782335
tp2163
tp2164
Rp2165
ag1
(g2
g3
(g4
g230
F0.001
F0.7062706270627063
tp2166
tp2167
Rp2168
ag1
(g2
g3
(g4
g134
F0.01
F0.7058823529411764
tp2169
tp2170
Rp2171
ag1
(g2
g3
(g4
g1052
F0.001
F0.7055016181229774
tp2172
tp2173
Rp2174
ag1
(g2
g3
(g4
g350
F0.01
F0.7054794520547945
tp2175
tp2176
Rp2177
ag1
(g2
g3
(g4
g398
F0.001
F0.7051282051282052
tp2178
tp2179
Rp2180
ag1
(g2
g3
(g4
g548
F0.01
F0.7046979865771812
tp2181
tp2182
Rp2183
ag1
(g2
g3
(g4
g977
F0.01
F0.7046979865771812
tp2184
tp2185
Rp2186
ag1
(g2
g3
(g4
g1061
F0.001
F0.7043189368770765
tp2187
tp2188
Rp2189
ag1
(g2
g3
(g4
g1148
F0.001
F0.7043189368770765
tp2190
tp2191
Rp2192
ag1
(g2
g3
(g4
g1163
F0.001
F0.7040498442367601
tp2193
tp2194
Rp2195
ag1
(g2
g3
(g4
g890
F0.01
F0.7039473684210527
tp2196
tp2197
Rp2198
ag1
(g2
g3
(g4
g791
F0.001
F0.7039473684210527
tp2199
tp2200
Rp2201
ag1
(g2
g3
(g4
g1163
F0.01
F0.7038327526132404
tp2202
tp2203
Rp2204
ag1
(g2
g3
(g4
g458
F0.001
F0.7035830618892508
tp2205
tp2206
Rp2207
ag1
(g2
g3
(g4
g608
F0.01
F0.7035830618892508
tp2208
tp2209
Rp2210
ag1
(g2
g3
(g4
g248
F0.001
F0.7035830618892508
tp2211
tp2212
Rp2213
ag1
(g2
g3
(g4
g1517
F0.001
F0.7032258064516129
tp2214
tp2215
Rp2216
ag1
(g2
g3
(g4
g752
F0.001
F0.7032258064516129
tp2217
tp2218
Rp2219
ag1
(g2
g3
(g4
g644
F0.001
F0.7028753993610224
tp2220
tp2221
Rp2222
ag1
(g2
g3
(g4
g716
F0.01
F0.7027027027027027
tp2223
tp2224
Rp2225
ag1
(g2
g3
(g4
g1706
F0.1
F0.7027027027027027
tp2226
tp2227
Rp2228
ag1
(g2
g3
(g4
g548
F0.001
F0.7025316455696203
tp2229
tp2230
Rp2231
ag1
(g2
g3
(g4
g68
F0.001
F0.7025316455696203
tp2232
tp2233
Rp2234
ag1
(g2
g3
(g4
g236
F0.01
F0.7016393442622951
tp2235
tp2236
Rp2237
ag1
(g2
g3
(g4
g1019
F0.01
F0.7012987012987013
tp2238
tp2239
Rp2240
ag1
(g2
g3
(g4
g566
F0.01
F0.7010309278350516
tp2241
tp2242
Rp2243
ag1
(g2
g3
(g4
g554
F0.001
F0.7010309278350516
tp2244
tp2245
Rp2246
ag1
(g2
g3
(g4
g476
F0.01
F0.7006802721088435
tp2247
tp2248
Rp2249
ag1
(g2
g3
(g4
g797
F0.01
F0.7006802721088435
tp2250
tp2251
Rp2252
ag1
(g2
g3
(g4
g572
F0.01
F0.7003367003367003
tp2253
tp2254
Rp2255
ag1
(g2
g3
(g4
g32
F0.001
F0.7003154574132492
tp2256
tp2257
Rp2258
ag1
(g2
g3
(g4
g1001
F0.001
F0.7000000000000001
tp2259
tp2260
Rp2261
ag1
(g2
g3
(g4
g710
F0.01
F0.7000000000000001
tp2262
tp2263
Rp2264
ag1
(g2
g3
(g4
g464
F0.001
F0.6996699669966996
tp2265
tp2266
Rp2267
ag1
(g2
g3
(g4
g404
F0.01
F0.698961937716263
tp2268
tp2269
Rp2270
ag1
(g2
g3
(g4
g278
F0.001
F0.6987179487179488
tp2271
tp2272
Rp2273
ag1
(g2
g3
(g4
g1130
F0.01
F0.6983050847457627
tp2274
tp2275
Rp2276
ag1
(g2
g3
(g4
g1013
F0.01
F0.697986577181208
tp2277
tp2278
Rp2279
ag1
(g2
g3
(g4
g920
F0.001
F0.6976744186046512
tp2280
tp2281
Rp2282
ag1
(g2
g3
(g4
g86
F0.001
F0.6976744186046512
tp2283
tp2284
Rp2285
ag1
(g2
g3
(g4
g1037
F0.001
F0.6973684210526315
tp2286
tp2287
Rp2288
ag1
(g2
g3
(g4
g839
F0.01
F0.6973684210526315
tp2289
tp2290
Rp2291
ag1
(g2
g3
(g4
g1772
F0.01
F0.6967741935483871
tp2292
tp2293
Rp2294
ag1
(g2
g3
(g4
g236
F0.001
F0.6967741935483871
tp2295
tp2296
Rp2297
ag1
(g2
g3
(g4
g440
F0.001
F0.6965517241379311
tp2298
tp2299
Rp2300
ag1
(g2
g3
(g4
g428
F0.001
F0.6962025316455696
tp2301
tp2302
Rp2303
ag1
(g2
g3
(g4
g1013
F0.001
F0.6956521739130436
tp2304
tp2305
Rp2306
ag1
(g2
g3
(g4
g242
F0.001
F0.6950819672131148
tp2307
tp2308
Rp2309
ag1
(g2
g3
(g4
g668
F0.01
F0.6947368421052631
tp2310
tp2311
Rp2312
ag1
(g2
g3
(g4
g404
F0.001
F0.6928104575163399
tp2313
tp2314
Rp2315
ag1
(g2
g3
(g4
g956
F0.001
F0.6923076923076924
tp2316
tp2317
Rp2318
ag1
(g2
g3
(g4
g1025
F0.001
F0.6910299003322259
tp2319
tp2320
Rp2321
ag1
(g2
g3
(g4
g881
F0.001
F0.6910299003322259
tp2322
tp2323
Rp2324
ag1
(g2
g3
(g4
g560
F0.001
F0.6905537459283388
tp2325
tp2326
Rp2327
ag1
(g2
g3
(g4
g716
F0.001
F0.6900958466453674
tp2328
tp2329
Rp2330
ag1
(g2
g3
(g4
g266
F0.001
F0.6889632107023411
tp2331
tp2332
Rp2333
ag1
(g2
g3
(g4
g542
F0.001
F0.6889632107023411
tp2334
tp2335
Rp2336
ag1
(g2
g3
(g4
g590
F0.001
F0.6883116883116883
tp2337
tp2338
Rp2339
ag1
(g2
g3
(g4
g350
F0.001
F0.686868686868687
tp2340
tp2341
Rp2342
ag1
(g2
g3
(g4
g596
F0.001
F0.686868686868687
tp2343
tp2344
Rp2345
ag1
(g2
g3
(g4
g122
F0.001
F0.6866666666666666
tp2346
tp2347
Rp2348
ag1
(g2
g3
(g4
g632
F0.01
F0.6864686468646866
tp2349
tp2350
Rp2351
ag1
(g2
g3
(g4
g746
F0.001
F0.6862745098039216
tp2352
tp2353
Rp2354
ag1
(g2
g3
(g4
g1808
F0.01
F0.6860841423948221
tp2355
tp2356
Rp2357
ag1
(g2
g3
(g4
g356
F0.001
F0.6860841423948221
tp2358
tp2359
Rp2360
ag1
(g2
g3
(g4
g1205
F0.1
F0.6854460093896714
tp2361
tp2362
Rp2363
ag1
(g2
g3
(g4
g170
F0.001
F0.6851211072664359
tp2364
tp2365
Rp2366
ag1
(g2
g3
(g4
g1772
F0.001
F0.68259385665529
tp2367
tp2368
Rp2369
ag1
(g2
g3
(g4
g1490
F0.001
F0.6822742474916388
tp2370
tp2371
Rp2372
ag1
(g2
g3
(g4
g1808
F0.001
F0.6799999999999999
tp2373
tp2374
Rp2375
ag1
(g2
g3
(g4
g608
F0.001
F0.6784452296819788
tp2376
tp2377
Rp2378
ag1
(g2
g3
(g4
g446
F0.01
F0.6782006920415224
tp2379
tp2380
Rp2381
ag1
(g2
g3
(g4
g1130
F0.001
F0.6779661016949152
tp2382
tp2383
Rp2384
ag1
(g2
g3
(g4
g869
F0.001
F0.6777408637873754
tp2385
tp2386
Rp2387
ag1
(g2
g3
(g4
g272
F0.001
F0.6776315789473685
tp2388
tp2389
Rp2390
ag1
(g2
g3
(g4
g1007
F0.001
F0.6732673267326732
tp2391
tp2392
Rp2393
ag1
(g2
g3
(g4
g1292
F0.001
F0.6732673267326732
tp2394
tp2395
Rp2396
ag1
(g2
g3
(g4
g890
F0.001
F0.6621160409556314
tp2397
tp2398
Rp2399
ag1
(g2
g3
(g4
g1421
F0.1
F0.6192893401015228
tp2400
tp2401
Rp2402
a.