(lp0
ccopy_reg
_reconstructor
p1
(cBenchmarkSVM
Point_3D
p2
c__builtin__
tuple
p3
(S'sigmoid'
p4
cnumpy.core.multiarray
scalar
p5
(cnumpy
dtype
p6
(S'f8'
p7
I0
I1
tp8
Rp9
(I3
S'<'
p10
NNNI-1
I-1
I0
tp11
bS'\xf5JY\x868V\x0b@'
p12
tp13
Rp14
F0.01
F0.961038961038961
tp15
tp16
Rp17
ag1
(g2
g3
(g4
g5
(g9
S'\xde\x02\t\x8a\x1fc\x05@'
p18
tp19
Rp20
F0.01
F0.96
tp21
tp22
Rp23
ag1
(g2
g3
(g4
g5
(g9
S'\xa9\x13\xd0D\xd8\xf0\xf3?'
p24
tp25
Rp26
F0.01
F0.9596774193548389
tp27
tp28
Rp29
ag1
(g2
g3
(g4
g5
(g9
S'j\xbct\x93\x18\x04\xd2?'
p30
tp31
Rp32
F0.01
F0.9596774193548386
tp33
tp34
Rp35
ag1
(g2
g3
(g4
g5
(g9
S'\x03\x9a\x08\x1b\x9e\xde\x05@'
p36
tp37
Rp38
F0.01
F0.957983193277311
tp39
tp40
Rp41
ag1
(g2
g3
(g4
g5
(g9
S'\x08\xac\x1cZd;\xfe?'
p42
tp43
Rp44
F0.01
F0.9565217391304348
tp45
tp46
Rp47
ag1
(g2
g3
(g4
g5
(g9
S'\x0b$(~\x8c\xb9\xf0?'
p48
tp49
Rp50
F0.01
F0.9565217391304347
tp51
tp52
Rp53
ag1
(g2
g3
(g4
g5
(g9
S'5\x80\xb7@\x82\xe2\x00@'
p54
tp55
Rp56
F0.01
F0.9565217391304347
tp57
tp58
Rp59
ag1
(g2
g3
(g4
g5
(g9
S'Y\x17\xb7\xd1\x00^\x01@'
p60
tp61
Rp62
F0.01
F0.9561403508771931
tp63
tp64
Rp65
ag1
(g2
g3
(g4
g5
(g9
S'J\x0c\x02+\x87\x16\xe9?'
p66
tp67
Rp68
F0.01
F0.9557522123893805
tp69
tp70
Rp71
ag1
(g2
g3
(g4
g5
(g9
S'c\x10X9\xb4\xc8\x0c@'
p72
tp73
Rp74
F0.01
F0.9539748953974896
tp75
tp76
Rp77
ag1
(g2
g3
(g4
g5
(g9
S'o\xa3\x01\xbc\x05\x12\x0e@'
p78
tp79
Rp80
F0.001
F0.9539748953974895
tp81
tp82
Rp83
ag1
(g2
g3
(g4
g5
(g9
S'\xf6\x06_\x98L\x15\xe0?'
p84
tp85
Rp86
F0.1
F0.9527896995708155
tp87
tp88
Rp89
ag1
(g2
g3
(g4
g5
(g9
S'\xddF\x03x\x0b$\x0c@'
p90
tp91
Rp92
F0.01
F0.9506726457399104
tp93
tp94
Rp95
ag1
(g2
g3
(g4
g5
(g9
S'\x1b\xc0[ Aq\x08@'
p96
tp97
Rp98
F0.01
F0.9502262443438914
tp99
tp100
Rp101
ag1
(g2
g3
(g4
g5
(g9
S'2\xe6\xae%\xe4\x03\x0b@'
p102
tp103
Rp104
F0.01
F0.9502262443438914
tp105
tp106
Rp107
ag1
(g2
g3
(g4
g5
(g9
S'|\xf2\xb0Pk\x9a\x08@'
p108
tp109
Rp110
F0.01
F0.949771689497717
tp111
tp112
Rp113
ag1
(g2
g3
(g4
g5
(g9
S'\xa1g\xb3\xeas\xb5\x05@'
p114
tp115
Rp116
F0.01
F0.9493087557603687
tp117
tp118
Rp119
ag1
(g2
g3
(g4
g5
(g9
S'\xa5,C\x1c\xeb\xe2\xce?'
p120
tp121
Rp122
F0.01
F0.9491525423728814
tp123
tp124
Rp125
ag1
(g2
g3
(g4
g5
(g9
S'yX\xa85\xcd;\xee?'
p126
tp127
Rp128
F0.01
F0.9482758620689655
tp129
tp130
Rp131
ag1
(g2
g3
(g4
g5
(g9
S'\xac\x1cZd;\xdf\xe5?'
p132
tp133
Rp134
F0.1
F0.9478260869565217
tp135
tp136
Rp137
ag1
(g2
g3
(g4
g5
(g9
S'\xac>W[\xb1\xbf\r@'
p138
tp139
Rp140
F0.01
F0.9473684210526316
tp141
tp142
Rp143
ag1
(g2
g3
(g4
g5
(g9
S'2\xe6\xae%\xe4\x83\xe6?'
p144
tp145
Rp146
F0.01
F0.946969696969697
tp147
tp148
Rp149
ag1
(g2
g3
(g4
g5
(g9
S'\xbbI\x0c\x02+\x87\x01@'
p150
tp151
Rp152
F0.01
F0.9469026548672567
tp153
tp154
Rp155
ag1
(g2
g3
(g4
g5
(g9
S'\xe9\xb7\xaf\x03\xe7\x0c\n@'
p156
tp157
Rp158
F0.01
F0.9469026548672567
tp159
tp160
Rp161
ag1
(g2
g3
(g4
g5
(g9
S'\x1a\xc0[ A\xf1\xe3?'
p162
tp163
Rp164
F0.01
F0.9464285714285714
tp165
tp166
Rp167
ag1
(g2
g3
(g4
g5
(g9
S'-!\x1f\xf4lV\xfb?'
p168
tp169
Rp170
F0.01
F0.9464285714285714
tp171
tp172
Rp173
ag1
(g2
g3
(g4
g5
(g9
S'\xd7\xa3p=\n\xd7\xff?'
p174
tp175
Rp176
F0.01
F0.9464285714285714
tp177
tp178
Rp179
ag1
(g2
g3
(g4
g5
(g9
S'x\x0b$(~\x8c\xf5?'
p180
tp181
Rp182
F0.01
F0.9454545454545454
tp183
tp184
Rp185
ag1
(g2
g3
(g4
g5
(g9
S'\x1a\xe2X\x17\xb7\xd1\x0b@'
p186
tp187
Rp188
F0.01
F0.9454545454545454
tp189
tp190
Rp191
ag1
(g2
g3
(g4
g5
(g9
S'\x01\xde\x02\t\x8a\x9f\x0c@'
p192
tp193
Rp194
F0.01
F0.9451476793248945
tp195
tp196
Rp197
ag1
(g2
g3
(g4
g5
(g9
S'\xb5\xa6y\xc7):\xf5?'
p198
tp199
Rp200
F0.01
F0.9446808510638298
tp201
tp202
Rp203
ag1
(g2
g3
(g4
g5
(g9
S'M\xa6\nF%u\x03@'
p204
tp205
Rp206
F0.01
F0.9446808510638297
tp207
tp208
Rp209
ag1
(g2
g3
(g4
g5
(g9
S'\xde$\x06\x81\x95\xc3\x08@'
p210
tp211
Rp212
F0.01
F0.9444444444444445
tp213
tp214
Rp215
ag1
(g2
g3
(g4
g5
(g9
S'A\x13a\xc3\xd3+\x02@'
p216
tp217
Rp218
F0.01
F0.9444444444444444
tp219
tp220
Rp221
ag1
(g2
g3
(g4
g5
(g9
S'\xdbh\x00o\x81\x04\xeb?'
p222
tp223
Rp224
F0.01
F0.944206008583691
tp225
tp226
Rp227
ag1
(g2
g3
(g4
g5
(g9
S'\xe6\xae%\xe4\x83\x9e\xf3?'
p228
tp229
Rp230
F0.01
F0.944206008583691
tp231
tp232
Rp233
ag1
(g2
g3
(g4
g5
(g9
S'>yX\xa85M\x0c@'
p234
tp235
Rp236
F0.001
F0.944206008583691
tp237
tp238
Rp239
ag1
(g2
g3
(g4
g5
(g9
S'\xa0\xab\xad\xd8_v\x0c@'
p240
tp241
Rp242
F0.001
F0.944206008583691
tp243
tp244
Rp245
ag1
(g2
g3
(g4
g5
(g9
S'\xe9\xd9\xac\xfa\\m\r@'
p246
tp247
Rp248
F0.001
F0.944206008583691
tp249
tp250
Rp251
ag1
(g2
g3
(g4
g5
(g9
S'\xd0\xd5V\xec/;\x0e@'
p252
tp253
Rp254
F0.001
F0.944206008583691
tp255
tp256
Rp257
ag1
(g2
g3
(g4
g5
(g9
S'\x96\xd4\th"l\x04@'
p258
tp259
Rp260
F0.01
F0.944
tp261
tp262
Rp263
ag1
(g2
g3
(g4
g5
(g9
S'\xa6\x9b\xc4 \xb0r\xd8?'
p264
tp265
Rp266
F0.1
F0.9437229437229437
tp267
tp268
Rp269
ag1
(g2
g3
(g4
g5
(g9
S'\xb9\x8d\x06\xf0\x16H\x08@'
p270
tp271
Rp272
F0.001
F0.9437229437229437
tp273
tp274
Rp275
ag1
(g2
g3
(g4
g5
(g9
S'\xdf\xe0\x0b\x93\xa9\x02\x02@'
p276
tp277
Rp278
F0.01
F0.943231441048035
tp279
tp280
Rp281
ag1
(g2
g3
(g4
g5
(g9
S'X9\xb4\xc8v\xbe\x04@'
p282
tp283
Rp284
F0.01
F0.943231441048035
tp285
tp286
Rp287
ag1
(g2
g3
(g4
g5
(g9
S'z6\xab>W[\x0f@'
p288
tp289
Rp290
F0.01
F0.943231441048035
tp291
tp292
Rp293
ag1
(g2
g3
(g4
g5
(g9
S'M\x84\rO\xaf\x14\x00@'
p294
tp295
Rp296
F0.001
F0.943089430894309
tp297
tp298
Rp299
ag1
(g2
g3
(g4
g92
F0.001
F0.943089430894309
tp300
tp301
Rp302
ag1
(g2
g3
(g4
g296
F0.01
F0.9428571428571428
tp303
tp304
Rp305
ag1
(g2
g3
(g4
g5
(g9
S'\x1c|a2U\xb0\x01@'
p306
tp307
Rp308
F0.01
F0.9427312775330398
tp309
tp310
Rp311
ag1
(g2
g3
(g4
g5
(g9
S'#J{\x83/L\xf3?'
p312
tp313
Rp314
F0.01
F0.9427312775330396
tp315
tp316
Rp317
ag1
(g2
g3
(g4
g5
(g9
S'S\x96!\x8euq\xf8?'
p318
tp319
Rp320
F0.01
F0.9427312775330396
tp321
tp322
Rp323
ag1
(g2
g3
(g4
g5
(g9
S'\x95\xf6\x06_\x98\xcc\x07@'
p324
tp325
Rp326
F0.01
F0.9426229508196722
tp327
tp328
Rp329
ag1
(g2
g3
(g4
g5
(g9
S'\xf8\xe4a\xa1\xd64\x01@'
p330
tp331
Rp332
F0.01
F0.9422222222222223
tp333
tp334
Rp335
ag1
(g2
g3
(g4
g5
(g9
S'vO\x1e\x16jM\xfc?'
p336
tp337
Rp338
F0.01
F0.9421487603305785
tp339
tp340
Rp341
ag1
(g2
g3
(g4
g14
F0.001
F0.9417040358744395
tp342
tp343
Rp344
ag1
(g2
g3
(g4
g5
(g9
S'\x96\xb2\x0cq\xac\x0b\x01@'
p345
tp346
Rp347
F0.01
F0.9417040358744394
tp348
tp349
Rp350
ag1
(g2
g3
(g4
g5
(g9
S'\x8aA`\xe5\xd0"\x03@'
p351
tp352
Rp353
F0.01
F0.9417040358744394
tp354
tp355
Rp356
ag1
(g2
g3
(g4
g5
(g9
S'\xda\x1b|a2U\xf2?'
p357
tp358
Rp359
F0.01
F0.9411764705882353
tp360
tp361
Rp362
ag1
(g2
g3
(g4
g5
(g9
S'\x16\xfb\xcb\xee\xc9\xc3\xf8?'
p363
tp364
Rp365
F0.01
F0.9411764705882353
tp366
tp367
Rp368
ag1
(g2
g3
(g4
g5
(g9
S'\xcb\x10\xc7\xba\xb8\x8d\xfe?'
p369
tp370
Rp371
F0.01
F0.940677966101695
tp372
tp373
Rp374
ag1
(g2
g3
(g4
g5
(g9
S'\xc4B\xadi\xde\xf1\x0c@'
p375
tp376
Rp377
F0.01
F0.940677966101695
tp378
tp379
Rp380
ag1
(g2
g3
(g4
g5
(g9
S'=\x9bU\x9f\xab\xad\x0f@'
p381
tp382
Rp383
F0.01
F0.9406392694063926
tp384
tp385
Rp386
ag1
(g2
g3
(g4
g5
(g9
S'\xd3Mb\x10X\xb9\x00@'
p387
tp388
Rp389
F0.01
F0.9405940594059405
tp390
tp391
Rp392
ag1
(g2
g3
(g4
g5
(g9
S'?W[\xb1\xbf\xec\x08@'
p393
tp394
Rp395
F0.001
F0.9402390438247012
tp396
tp397
Rp398
ag1
(g2
g3
(g4
g5
(g9
S'?W[\xb1\xbf\xec\xae?'
p399
tp400
Rp401
F0.1
F0.9401709401709402
tp402
tp403
Rp404
ag1
(g2
g3
(g4
g5
(g9
S'\xd3o_\x07\xce\x19\x04@'
p405
tp406
Rp407
F0.01
F0.9401709401709402
tp408
tp409
Rp410
ag1
(g2
g3
(g4
g5
(g9
S'\x1b\x9e^)\xcb\x10\x05@'
p411
tp412
Rp413
F0.01
F0.9401709401709402
tp414
tp415
Rp416
ag1
(g2
g3
(g4
g5
(g9
S'\x9d\x80&\xc2\x86\xa7\xf2?'
p417
tp418
Rp419
F0.01
F0.9396551724137931
tp420
tp421
Rp422
ag1
(g2
g3
(g4
g5
(g9
S'{\x14\xaeG\xe1\xfa\x0b@'
p423
tp424
Rp425
F0.01
F0.9395348837209303
tp426
tp427
Rp428
ag1
(g2
g3
(g4
g5
(g9
S'3\xc4\xb1.n\xa3\x07@'
p429
tp430
Rp431
F0.01
F0.9395348837209301
tp432
tp433
Rp434
ag1
(g2
g3
(g4
g5
(g9
S'\xff!\xfd\xf6u\xe0\xee?'
p435
tp436
Rp437
F0.01
F0.9392712550607287
tp438
tp439
Rp440
ag1
(g2
g3
(g4
g5
(g9
S'G\x03x\x0b$(\xf7?'
p441
tp442
Rp443
F0.01
F0.9392712550607287
tp444
tp445
Rp446
ag1
(g2
g3
(g4
g5
(g9
S'\xae\xd8_vO\x9e\x03@'
p447
tp448
Rp449
F0.001
F0.9392712550607287
tp450
tp451
Rp452
ag1
(g2
g3
(g4
g5
(g9
S'\xf6(\\\x8f\xc2\xf5\x07@'
p453
tp454
Rp455
F0.01
F0.9391304347826087
tp456
tp457
Rp458
ag1
(g2
g3
(g4
g5
(g9
S'\xd9_vO\x1e\x16\xf9?'
p459
tp460
Rp461
F0.01
F0.9387755102040817
tp462
tp463
Rp464
ag1
(g2
g3
(g4
g5
(g9
S'\xbf}\x1d8gD\xfd?'
p465
tp466
Rp467
F0.01
F0.9387755102040817
tp468
tp469
Rp470
ag1
(g2
g3
(g4
g80
F0.01
F0.9387755102040817
tp471
tp472
Rp473
ag1
(g2
g3
(g4
g5
(g9
S'U\x9f\xab\xad\xd8_\xea?'
p474
tp475
Rp476
F0.01
F0.9387755102040816
tp477
tp478
Rp479
ag1
(g2
g3
(g4
g5
(g9
S'\x93:\x01M\x84\x8d\x0e@'
p480
tp481
Rp482
F0.001
F0.9387755102040816
tp483
tp484
Rp485
ag1
(g2
g3
(g4
g5
(g9
S'\x19\x04V\x0e-2\x0f@'
p486
tp487
Rp488
F0.01
F0.9385964912280701
tp489
tp490
Rp491
ag1
(g2
g3
(g4
g5
(g9
S'\xc7\xdc\xb5\x84|\xd0\x02@'
p492
tp493
Rp494
F0.01
F0.9383886255924171
tp495
tp496
Rp497
ag1
(g2
g3
(g4
g5
(g9
S'\x17\xb7\xd1\x00\xde\x02\xf2?'
p498
tp499
Rp500
F0.01
F0.9380530973451328
tp501
tp502
Rp503
ag1
(g2
g3
(g4
g5
(g9
S'\xb3\xeas\xb5\x15\xfb\xfb?'
p504
tp505
Rp506
F0.01
F0.9380530973451328
tp507
tp508
Rp509
ag1
(g2
g3
(g4
g5
(g9
S'\x89c]\xdcF\x83\x06@'
p510
tp511
Rp512
F0.01
F0.9380530973451328
tp513
tp514
Rp515
ag1
(g2
g3
(g4
g5
(g9
S'\x87\xa7W\xca2D\r@'
p516
tp517
Rp518
F0.01
F0.9380530973451328
tp519
tp520
Rp521
ag1
(g2
g3
(g4
g5
(g9
S'\xf7\x06_\x98L\x95\x04@'
p522
tp523
Rp524
F0.01
F0.9377593360995851
tp525
tp526
Rp527
ag1
(g2
g3
(g4
g5
(g9
S'}\xd0\xb3Y\xf59\x05@'
p528
tp529
Rp530
F0.01
F0.9375
tp531
tp532
Rp533
ag1
(g2
g3
(g4
g140
F0.1
F0.9375
tp534
tp535
Rp536
ag1
(g2
g3
(g4
g5
(g9
S'\xb7\xd1\x00\xde\x02\t\x0f@'
p537
tp538
Rp539
F0.001
F0.9374999999999999
tp540
tp541
Rp542
ag1
(g2
g3
(g4
g5
(g9
S'\x901w-!\x1f\xf8?'
p543
tp544
Rp545
F0.001
F0.9372384937238494
tp546
tp547
Rp548
ag1
(g2
g3
(g4
g5
(g9
S'\xbak\t\xf9\xa0\xe7\x04@'
p549
tp550
Rp551
F0.01
F0.9372384937238494
tp552
tp553
Rp554
ag1
(g2
g3
(g4
g5
(g9
S'@5^\xbaI\x8c\x05@'
p555
tp556
Rp557
F0.01
F0.9372384937238494
tp558
tp559
Rp560
ag1
(g2
g3
(g4
g5
(g9
S'&u\x02\x9a\x08\x1b\r@'
p561
tp562
Rp563
F0.01
F0.9369369369369368
tp564
tp565
Rp566
ag1
(g2
g3
(g4
g5
(g9
S'`\xe5\xd0"\xdb\xf9\xf2?'
p567
tp568
Rp569
F0.01
F0.9367088607594938
tp570
tp571
Rp572
ag1
(g2
g3
(g4
g254
F0.01
F0.9367088607594938
tp573
tp574
Rp575
ag1
(g2
g3
(g4
g5
(g9
S'\xe4\xf2\x1f\xd2o_\xfa?'
p576
tp577
Rp578
F0.01
F0.9367088607594937
tp579
tp580
Rp581
ag1
(g2
g3
(g4
g449
F0.01
F0.9367088607594937
tp582
tp583
Rp584
ag1
(g2
g3
(g4
g5
(g9
S'\x00\x00\x00\x00\x00\x00\x10@'
p585
tp586
Rp587
F0.001
F0.9367088607594937
tp588
tp589
Rp590
ag1
(g2
g3
(g4
g5
(g9
S'\x8euq\x1b\r\xe0\xfe?'
p591
tp592
Rp593
F0.01
F0.9365853658536586
tp594
tp595
Rp596
ag1
(g2
g3
(g4
g5
(g9
S'\x94\xf6\x06_\x98L\xe3?'
p597
tp598
Rp599
F0.01
F0.9363636363636364
tp600
tp601
Rp602
ag1
(g2
g3
(g4
g5
(g9
S'\x02\x9a\x08\x1b\x9e^\xe1?'
p603
tp604
Rp605
F0.1
F0.9363636363636363
tp606
tp607
Rp608
ag1
(g2
g3
(g4
g5
(g9
S'F\x94\xf6\x06_\x98\xc4?'
p609
tp610
Rp611
F0.01
F0.9361702127659574
tp612
tp613
Rp614
ag1
(g2
g3
(g4
g5
(g9
S'\x14?\xc6\xdc\xb5\x84\xff?'
p615
tp616
Rp617
F0.01
F0.9361702127659574
tp618
tp619
Rp620
ag1
(g2
g3
(g4
g611
F0.1
F0.936
tp621
tp622
Rp623
ag1
(g2
g3
(g4
g5
(g9
S'W}\xae\xb6b\x7f\x0b@'
p624
tp625
Rp626
F0.01
F0.9356223175965666
tp627
tp628
Rp629
ag1
(g2
g3
(g4
g152
F0.001
F0.9356223175965664
tp630
tp631
Rp632
ag1
(g2
g3
(g4
g242
F0.01
F0.9356223175965664
tp633
tp634
Rp635
ag1
(g2
g3
(g4
g5
(g9
S'\x91\xed|?5^\xf1?'
p636
tp637
Rp638
F0.01
F0.9354838709677419
tp639
tp640
Rp641
ag1
(g2
g3
(g4
g419
F0.001
F0.935361216730038
tp642
tp643
Rp644
ag1
(g2
g3
(g4
g5
(g9
S'\x9c\xc4 \xb0rh\xf9?'
p645
tp646
Rp647
F0.01
F0.9351851851851851
tp648
tp649
Rp650
ag1
(g2
g3
(g4
g5
(g9
S'\rq\xac\x8b\xdb\xe8\r@'
p651
tp652
Rp653
F0.01
F0.9350649350649352
tp654
tp655
Rp656
ag1
(g2
g3
(g4
g395
F0.01
F0.9349593495934959
tp657
tp658
Rp659
ag1
(g2
g3
(g4
g425
F0.001
F0.9349593495934959
tp660
tp661
Rp662
ag1
(g2
g3
(g4
g5
(g9
S'\x0e-\xb2\x9d\xef\xa7\xe2?'
p663
tp664
Rp665
F0.01
F0.9345794392523364
tp666
tp667
Rp668
ag1
(g2
g3
(g4
g278
F0.001
F0.9344262295081968
tp669
tp670
Rp671
ag1
(g2
g3
(g4
g5
(g9
S'q=\n\xd7\xa3\xf0\x03@'
p672
tp673
Rp674
F0.01
F0.9339207048458151
tp675
tp676
Rp677
ag1
(g2
g3
(g4
g5
(g9
S'\x10\x0b\xb5\xa6y\xc7\x03@'
p678
tp679
Rp680
F0.01
F0.9338842975206613
tp681
tp682
Rp683
ag1
(g2
g3
(g4
g5
(g9
S'm\xc5\xfe\xb2{\xf2\xec?'
p684
tp685
Rp686
F0.01
F0.9338842975206612
tp687
tp688
Rp689
ag1
(g2
g3
(g4
g5
(g9
S'Q\xda\x1b|a2\xff?'
p690
tp691
Rp692
F0.001
F0.9338842975206612
tp693
tp694
Rp695
ag1
(g2
g3
(g4
g5
(g9
S'\xc5 \xb0rh\x91\t@'
p696
tp697
Rp698
F0.001
F0.9338842975206612
tp699
tp700
Rp701
ag1
(g2
g3
(g4
g5
(g9
S'\x84\x9e\xcd\xaa\xcf\xd5\xf6?'
p702
tp703
Rp704
F0.01
F0.9333333333333333
tp705
tp706
Rp707
ag1
(g2
g3
(g4
g5
(g9
S'\xf0\x85\xc9T\xc1\xa8\xfb?'
p708
tp709
Rp710
F0.01
F0.9333333333333333
tp711
tp712
Rp713
ag1
(g2
g3
(g4
g5
(g9
S'\x04x\x0b$(~\x02@'
p714
tp715
Rp716
F0.01
F0.9333333333333333
tp717
tp718
Rp719
ag1
(g2
g3
(g4
g38
F0.001
F0.9333333333333333
tp720
tp721
Rp722
ag1
(g2
g3
(g4
g5
(g9
S'_)\xcb\x10\xc7\xba\xf9?'
p723
tp724
Rp725
F0.01
F0.9333333333333332
tp726
tp727
Rp728
ag1
(g2
g3
(g4
g5
(g9
S'\xa7W\xca2\xc4\xb1\xfa?'
p729
tp730
Rp731
F0.01
F0.9333333333333332
tp732
tp733
Rp734
ag1
(g2
g3
(g4
g5
(g9
S'd\xeeZB>h\t@'
p735
tp736
Rp737
F0.01
F0.9328063241106719
tp738
tp739
Rp740
ag1
(g2
g3
(g4
g5
(g9
S'\xf5lV}\xae\xb6\x0e@'
p741
tp742
Rp743
F0.01
F0.9327731092436975
tp744
tp745
Rp746
ag1
(g2
g3
(g4
g551
F0.001
F0.9327354260089685
tp747
tp748
Rp749
ag1
(g2
g3
(g4
g5
(g9
S'\x02\xbc\x05\x12\x14?\t@'
p750
tp751
Rp752
F0.01
F0.9322033898305084
tp753
tp754
Rp755
ag1
(g2
g3
(g4
g5
(g9
S'9\xb4\xc8v\xbe\x9f\xfc?'
p756
tp757
Rp758
F0.01
F0.9321266968325792
tp759
tp760
Rp761
ag1
(g2
g3
(g4
g326
F0.001
F0.9316239316239315
tp762
tp763
Rp764
ag1
(g2
g3
(g4
g5
(g9
S'\xfe\xd4x\xe9&1\xf6?'
p765
tp766
Rp767
F0.01
F0.9315068493150684
tp768
tp769
Rp770
ag1
(g2
g3
(g4
g5
(g9
S"'S\x05\xa3\x92\xba\t@"
p771
tp772
Rp773
F0.01
F0.9312169312169313
tp774
tp775
Rp776
ag1
(g2
g3
(g4
g5
(g9
S'~\xae\xb6b\x7f\xd9\x01@'
p777
tp778
Rp779
F0.001
F0.9311740890688258
tp780
tp781
Rp782
ag1
(g2
g3
(g4
g758
F0.001
F0.9306122448979592
tp783
tp784
Rp785
ag1
(g2
g3
(g4
g5
(g9
S'\x8euq\x1b\r\xe0\xd5?'
p786
tp787
Rp788
F0.01
F0.9306122448979591
tp789
tp790
Rp791
ag1
(g2
g3
(g4
g5
(g9
S'e\xaa`TR\xa7\x02@'
p792
tp793
Rp794
F0.01
F0.9306122448979591
tp795
tp796
Rp797
ag1
(g2
g3
(g4
g653
F0.001
F0.9306122448979591
tp798
tp799
Rp800
ag1
(g2
g3
(g4
g5
(g9
S'\xdch\x00o\x81\x84\x0f@'
p801
tp802
Rp803
F0.001
F0.9306122448979591
tp804
tp805
Rp806
ag1
(g2
g3
(g4
g5
(g9
S'\x10\xe9\xb7\xaf\x03g\x00@'
p807
tp808
Rp809
F0.01
F0.9304347826086956
tp810
tp811
Rp812
ag1
(g2
g3
(g4
g5
(g9
S'r\x1b\r\xe0-\x90\x00@'
p813
tp814
Rp815
F0.01
F0.9304347826086956
tp816
tp817
Rp818
ag1
(g2
g3
(g4
g5
(g9
S'L\xc8\x07=\x9b\xd5\x06@'
p819
tp820
Rp821
F0.01
F0.9304347826086956
tp822
tp823
Rp824
ag1
(g2
g3
(g4
g236
F0.01
F0.9304347826086956
tp825
tp826
Rp827
ag1
(g2
g3
(g4
g182
F0.001
F0.9300411522633745
tp828
tp829
Rp830
ag1
(g2
g3
(g4
g266
F0.01
F0.9298245614035088
tp831
tp832
Rp833
ag1
(g2
g3
(g4
g5
(g9
S'\xbd\xc1\x17&S\x05\xdb?'
p834
tp835
Rp836
F0.1
F0.9298245614035088
tp837
tp838
Rp839
ag1
(g2
g3
(g4
g5
(g9
S'\xe7\xfb\xa9\xf1\xd2M\xec?'
p840
tp841
Rp842
F0.01
F0.9298245614035088
tp843
tp844
Rp845
ag1
(g2
g3
(g4
g371
F0.001
F0.9298245614035088
tp846
tp847
Rp848
ag1
(g2
g3
(g4
g5
(g9
S'\x9f\xcd\xaa\xcf\xd5\xd6\x0f@'
p849
tp850
Rp851
F0.01
F0.9298245614035088
tp852
tp853
Rp854
ag1
(g2
g3
(g4
g5
(g9
S'\xc4B\xadi\xdeq\xe8?'
p855
tp856
Rp857
F0.01
F0.9298245614035087
tp858
tp859
Rp860
ag1
(g2
g3
(g4
g5
(g9
S'\xaf\xb6b\x7f\xd9=\x00@'
p861
tp862
Rp863
F0.01
F0.9298245614035087
tp864
tp865
Rp866
ag1
(g2
g3
(g4
g524
F0.001
F0.9296875000000001
tp867
tp868
Rp869
ag1
(g2
g3
(g4
g5
(g9
S'\x0eO\xaf\x94e\x88\n@'
p870
tp871
Rp872
F0.01
F0.9294605809128631
tp873
tp874
Rp875
ag1
(g2
g3
(g4
g5
(g9
S'\xb8\xaf\x03\xe7\x8c\xa8\x0b@'
p876
tp877
Rp878
F0.001
F0.9294605809128631
tp879
tp880
Rp881
ag1
(g2
g3
(g4
g248
F0.01
F0.9292035398230089
tp882
tp883
Rp884
ag1
(g2
g3
(g4
g146
F0.001
F0.9288702928870294
tp885
tp886
Rp887
ag1
(g2
g3
(g4
g5
(g9
S'\x85Z\xd3\xbc\xe3\x14\xf0?'
p888
tp889
Rp890
F0.01
F0.9285714285714286
tp891
tp892
Rp893
ag1
(g2
g3
(g4
g383
F0.001
F0.9285714285714286
tp894
tp895
Rp896
ag1
(g2
g3
(g4
g710
F0.001
F0.9285714285714285
tp897
tp898
Rp899
ag1
(g2
g3
(g4
g455
F0.001
F0.9285714285714285
tp900
tp901
Rp902
ag1
(g2
g3
(g4
g5
(g9
S'(\x0f\x0b\xb5\xa6\xf9\x02@'
p903
tp904
Rp905
F0.001
F0.9283018867924527
tp906
tp907
Rp908
ag1
(g2
g3
(g4
g5
(g9
S'\x85\xebQ\xb8\x1e\x85\xef?'
p909
tp910
Rp911
F0.01
F0.9282700421940928
tp912
tp913
Rp914
ag1
(g2
g3
(g4
g206
F0.1
F0.9282700421940928
tp915
tp916
Rp917
ag1
(g2
g3
(g4
g5
(g9
S'\xc6\xfe\xb2{\xf20\x06@'
p918
tp919
Rp920
F0.01
F0.9282700421940928
tp921
tp922
Rp923
ag1
(g2
g3
(g4
g110
F0.001
F0.9282700421940928
tp924
tp925
Rp926
ag1
(g2
g3
(g4
g803
F0.01
F0.9282700421940928
tp927
tp928
Rp929
ag1
(g2
g3
(g4
g5
(g9
S'>yX\xa85\xcd\xe7?'
p930
tp931
Rp932
F0.01
F0.9282700421940927
tp933
tp934
Rp935
ag1
(g2
g3
(g4
g920
F0.001
F0.9282700421940927
tp936
tp937
Rp938
ag1
(g2
g3
(g4
g5
(g9
S'\xb2.n\xa3\x01\xbc\xd9?'
p939
tp940
Rp941
F0.01
F0.9276595744680851
tp942
tp943
Rp944
ag1
(g2
g3
(g4
g5
(g9
S'&S\x05\xa3\x92:\xe5?'
p945
tp946
Rp947
F0.01
F0.9276595744680851
tp948
tp949
Rp950
ag1
(g2
g3
(g4
g545
F0.01
F0.9276595744680851
tp951
tp952
Rp953
ag1
(g2
g3
(g4
g5
(g9
S'd\xcc]K\xc8\x07\x06@'
p954
tp955
Rp956
F0.01
F0.9276595744680851
tp957
tp958
Rp959
ag1
(g2
g3
(g4
g5
(g9
S'\xa1\x89\xb0\xe1\xe9\x15\t@'
p960
tp961
Rp962
F0.01
F0.9276595744680851
tp963
tp964
Rp965
ag1
(g2
g3
(g4
g5
(g9
S'\xac\x1cZd;_\n@'
p966
tp967
Rp968
F0.01
F0.9276595744680851
tp969
tp970
Rp971
ag1
(g2
g3
(g4
g872
F0.001
F0.9274193548387096
tp972
tp973
Rp974
ag1
(g2
g3
(g4
g272
F0.01
F0.9272727272727272
tp975
tp976
Rp977
ag1
(g2
g3
(g4
g5
(g9
S'p_\x07\xce\x19Q\x07@'
p978
tp979
Rp980
F0.01
F0.9272727272727271
tp981
tp982
Rp983
ag1
(g2
g3
(g4
g851
F0.001
F0.9272030651340997
tp984
tp985
Rp986
ag1
(g2
g3
(g4
g5
(g9
S'a2U0*\xa9\xeb?'
p987
tp988
Rp989
F0.01
F0.9270833333333333
tp990
tp991
Rp992
ag1
(g2
g3
(g4
g5
(g9
S'\xffC\xfa\xed\xeb\xc0\xb9?'
p993
tp994
Rp995
F0.1
F0.9270386266094421
tp996
tp997
Rp998
ag1
(g2
g3
(g4
g989
F0.001
F0.9270386266094421
tp999
tp1000
Rp1001
ag1
(g2
g3
(g4
g98
F0.001
F0.9270386266094421
tp1002
tp1003
Rp1004
ag1
(g2
g3
(g4
g878
F0.01
F0.9270386266094421
tp1005
tp1006
Rp1007
ag1
(g2
g3
(g4
g5
(g9
S'V\x9f\xab\xad\xd8\xdf\x0e@'
p1008
tp1009
Rp1010
F0.01
F0.9270386266094421
tp1011
tp1012
Rp1013
ag1
(g2
g3
(g4
g5
(g9
S'\xfc\x18s\xd7\x12\xf2\xfc?'
p1014
tp1015
Rp1016
F0.01
F0.9270386266094419
tp1017
tp1018
Rp1019
ag1
(g2
g3
(g4
g5
(g9
S'\xa2E\xb6\xf3\xfdT\x02@'
p1020
tp1021
Rp1022
F0.001
F0.9268292682926831
tp1023
tp1024
Rp1025
ag1
(g2
g3
(g4
g5
(g9
S'\x94\x18\x04V\x0e-\x0b@'
p1026
tp1027
Rp1028
F0.001
F0.926829268292683
tp1029
tp1030
Rp1031
ag1
(g2
g3
(g4
g134
F0.01
F0.9268292682926829
tp1032
tp1033
Rp1034
ag1
(g2
g3
(g4
g5
(g9
S'2\x08\xac\x1cZd\x0e@'
p1035
tp1036
Rp1037
F0.001
F0.9266409266409267
tp1038
tp1039
Rp1040
ag1
(g2
g3
(g4
g5
(g9
S'\x88c]\xdcF\x03\xe2?'
p1041
tp1042
Rp1043
F0.01
F0.926605504587156
tp1044
tp1045
Rp1046
ag1
(g2
g3
(g4
g5
(g9
S'K\xea\x044\x116\n@'
p1047
tp1048
Rp1049
F0.01
F0.926605504587156
tp1050
tp1051
Rp1052
ag1
(g2
g3
(g4
g5
(g9
S'lxz\xa5,C\xf4?'
p1053
tp1054
Rp1055
F0.01
F0.9264069264069265
tp1056
tp1057
Rp1058
ag1
(g2
g3
(g4
g218
F0.001
F0.9264069264069265
tp1059
tp1060
Rp1061
ag1
(g2
g3
(g4
g5
(g9
S"'1\x08\xac\x1cZ\x06@"
p1062
tp1063
Rp1064
F0.001
F0.9259259259259259
tp1065
tp1066
Rp1067
ag1
(g2
g3
(g4
g1049
F0.1
F0.9257641921397379
tp1068
tp1069
Rp1070
ag1
(g2
g3
(g4
g5
(g9
S'H\xbf}\x1d8g\xf0?'
p1071
tp1072
Rp1073
F0.001
F0.9256198347107438
tp1074
tp1075
Rp1076
ag1
(g2
g3
(g4
g647
F0.001
F0.9256198347107438
tp1077
tp1078
Rp1079
ag1
(g2
g3
(g4
g5
(g9
S'4\xa2\xb47\xf8B\x04@'
p1080
tp1081
Rp1082
F0.01
F0.9251101321585904
tp1083
tp1084
Rp1085
ag1
(g2
g3
(g4
g308
F0.001
F0.9251101321585902
tp1086
tp1087
Rp1088
ag1
(g2
g3
(g4
g212
F0.001
F0.9249999999999999
tp1089
tp1090
Rp1091
ag1
(g2
g3
(g4
g5
(g9
S';p\xce\x88\xd2\xde\xf5?'
p1092
tp1093
Rp1094
F0.01
F0.9244444444444444
tp1095
tp1096
Rp1097
ag1
(g2
g3
(g4
g5
(g9
S'\xd1\xb3Y\xf5\xb9\xda\n@'
p1098
tp1099
Rp1100
F0.01
F0.9244444444444444
tp1101
tp1102
Rp1103
ag1
(g2
g3
(g4
g737
F0.001
F0.9243697478991597
tp1104
tp1105
Rp1106
ag1
(g2
g3
(g4
g1082
F0.001
F0.9243697478991596
tp1107
tp1108
Rp1109
ag1
(g2
g3
(g4
g563
F0.001
F0.9243027888446215
tp1110
tp1111
Rp1112
ag1
(g2
g3
(g4
g773
F0.001
F0.9237668161434978
tp1113
tp1114
Rp1115
ag1
(g2
g3
(g4
g5
(g9
S"TR'\xa0\x89\xb0\xf1?"
p1116
tp1117
Rp1118
F0.01
F0.9237668161434976
tp1119
tp1120
Rp1121
ag1
(g2
g3
(g4
g5
(g9
S'\xcd\xcc\xcc\xcc\xcc\xcc\xf7?'
p1122
tp1123
Rp1124
F0.001
F0.9237288135593221
tp1125
tp1126
Rp1127
ag1
(g2
g3
(g4
g5
(g9
S'\x82\xe2\xc7\x98\xbb\x96\xfd?'
p1128
tp1129
Rp1130
F0.001
F0.9237288135593221
tp1131
tp1132
Rp1133
ag1
(g2
g3
(g4
g284
F0.001
F0.9237288135593221
tp1134
tp1135
Rp1136
ag1
(g2
g3
(g4
g1028
F0.01
F0.9237288135593221
tp1137
tp1138
Rp1139
ag1
(g2
g3
(g4
g851
F0.1
F0.923728813559322
tp1140
tp1141
Rp1142
ag1
(g2
g3
(g4
g5
(g9
S'o\x81\x04\xc5\x8f\xb1\n@'
p1143
tp1144
Rp1145
F0.01
F0.9236947791164659
tp1146
tp1147
Rp1148
ag1
(g2
g3
(g4
g5
(g9
S'\xa0\x89\xb0\xe1\xe9\x95\xe4?'
p1149
tp1150
Rp1151
F0.01
F0.9230769230769231
tp1152
tp1153
Rp1154
ag1
(g2
g3
(g4
g5
(g9
S'\xb8\xaf\x03\xe7\x8c(\xe7?'
p1155
tp1156
Rp1157
F0.01
F0.9230769230769231
tp1158
tp1159
Rp1160
ag1
(g2
g3
(g4
g5
(g9
S'\xf2A\xcff\xd5\xe7\xf4?'
p1161
tp1162
Rp1163
F0.001
F0.9230769230769231
tp1164
tp1165
Rp1166
ag1
(g2
g3
(g4
g5
(g9
S'v\xe0\x9c\x11\xa5\xbd\xc9?'
p1167
tp1168
Rp1169
F0.01
F0.923076923076923
tp1170
tp1171
Rp1172
ag1
(g2
g3
(g4
g338
F0.001
F0.923076923076923
tp1173
tp1174
Rp1175
ag1
(g2
g3
(g4
g206
F0.001
F0.923076923076923
tp1176
tp1177
Rp1178
ag1
(g2
g3
(g4
g743
F0.001
F0.923076923076923
tp1179
tp1180
Rp1181
ag1
(g2
g3
(g4
g50
F0.001
F0.9225092250922509
tp1182
tp1183
Rp1184
ag1
(g2
g3
(g4
g809
F0.1
F0.9224489795918367
tp1185
tp1186
Rp1187
ag1
(g2
g3
(g4
g752
F0.001
F0.9224489795918366
tp1188
tp1189
Rp1190
ag1
(g2
g3
(g4
g74
F0.001
F0.9218106995884774
tp1191
tp1192
Rp1193
ag1
(g2
g3
(g4
g200
F0.001
F0.9217391304347827
tp1194
tp1195
Rp1196
ag1
(g2
g3
(g4
g1064
F0.01
F0.9217391304347826
tp1197
tp1198
Rp1199
ag1
(g2
g3
(g4
g5
(g9
S'\xebs\xb5\x15\xfbK\x03@'
p1200
tp1201
Rp1202
F0.001
F0.9216589861751152
tp1203
tp1204
Rp1205
ag1
(g2
g3
(g4
g353
F0.1
F0.9210526315789475
tp1206
tp1207
Rp1208
ag1
(g2
g3
(g4
g5
(g9
S'\xd2\x91\\\xfeCz\x07@'
p1209
tp1210
Rp1211
F0.01
F0.9210526315789473
tp1212
tp1213
Rp1214
ag1
(g2
g3
(g4
g5
(g9
S'\x9a\x08\x1b\x9e^)\xd7?'
p1215
tp1216
Rp1217
F0.01
F0.9205020920502093
tp1218
tp1219
Rp1220
ag1
(g2
g3
(g4
g1100
F0.001
F0.9205020920502092
tp1221
tp1222
Rp1223
ag1
(g2
g3
(g4
g1163
F0.01
F0.920353982300885
tp1224
tp1225
Rp1226
ag1
(g2
g3
(g4
g773
F0.1
F0.920353982300885
tp1227
tp1228
Rp1229
ag1
(g2
g3
(g4
g359
F0.001
F0.9200000000000002
tp1230
tp1231
Rp1232
ag1
(g2
g3
(g4
g1211
F0.001
F0.9198312236286921
tp1233
tp1234
Rp1235
ag1
(g2
g3
(g4
g1130
F0.01
F0.9196428571428571
tp1236
tp1237
Rp1238
ag1
(g2
g3
(g4
g5
(g9
S'\x88\x85Z\xd3\xbc\xe3\t@'
p1239
tp1240
Rp1241
F0.001
F0.9193548387096775
tp1242
tp1243
Rp1244
ag1
(g2
g3
(g4
g5
(g9
S'\nh"lxz\xf7?'
p1245
tp1246
Rp1247
F0.001
F0.9193548387096774
tp1248
tp1249
Rp1250
ag1
(g2
g3
(g4
g461
F0.001
F0.9193548387096773
tp1251
tp1252
Rp1253
ag1
(g2
g3
(g4
g512
F0.001
F0.9189189189189189
tp1254
tp1255
Rp1256
ag1
(g2
g3
(g4
g5
(g9
S'J\x0c\x02+\x87\x96\r@'
p1257
tp1258
Rp1259
F0.001
F0.9189189189189189
tp1260
tp1261
Rp1262
ag1
(g2
g3
(g4
g365
F0.1
F0.9186991869918699
tp1263
tp1264
Rp1265
ag1
(g2
g3
(g4
g1241
F0.01
F0.9186991869918699
tp1266
tp1267
Rp1268
ag1
(g2
g3
(g4
g230
F0.001
F0.9186991869918698
tp1269
tp1270
Rp1271
ag1
(g2
g3
(g4
g104
F0.001
F0.9186602870813396
tp1272
tp1273
Rp1274
ag1
(g2
g3
(g4
g1247
F0.01
F0.9184549356223176
tp1275
tp1276
Rp1277
ag1
(g2
g3
(g4
g968
F0.001
F0.9184549356223176
tp1278
tp1279
Rp1280
ag1
(g2
g3
(g4
g176
F0.001
F0.9181818181818183
tp1281
tp1282
Rp1283
ag1
(g2
g3
(g4
g431
F0.001
F0.9181818181818183
tp1284
tp1285
Rp1286
ag1
(g2
g3
(g4
g1016
F0.001
F0.9181818181818181
tp1287
tp1288
Rp1289
ag1
(g2
g3
(g4
g5
(g9
S"\x0f-\xb2\x9d\xef'\x07@"
p1290
tp1291
Rp1292
F0.001
F0.9177489177489178
tp1293
tp1294
Rp1295
ag1
(g2
g3
(g4
g1124
F0.01
F0.9174311926605504
tp1296
tp1297
Rp1298
ag1
(g2
g3
(g4
g353
F0.001
F0.9174311926605504
tp1299
tp1300
Rp1301
ag1
(g2
g3
(g4
g5
(g9
S'X[\xb1\xbf\xec\x1e\x08@'
p1302
tp1303
Rp1304
F0.01
F0.9174311926605504
tp1305
tp1306
Rp1307
ag1
(g2
g3
(g4
g86
F0.01
F0.9173553719008265
tp1308
tp1309
Rp1310
ag1
(g2
g3
(g4
g260
F0.001
F0.9173553719008265
tp1311
tp1312
Rp1313
ag1
(g2
g3
(g4
g467
F0.001
F0.9173553719008264
tp1314
tp1315
Rp1316
ag1
(g2
g3
(g4
g1022
F0.01
F0.9170731707317074
tp1317
tp1318
Rp1319
ag1
(g2
g3
(g4
g5
(g9
S'|\xd0\xb3Y\xf5\xb9\xe0?'
p1320
tp1321
Rp1322
F0.01
F0.9170305676855895
tp1323
tp1324
Rp1325
ag1
(g2
g3
(g4
g5
(g9
S'\xc9T\xc1\xa8\xa4N\xdc?'
p1326
tp1327
Rp1328
F0.01
F0.9170305676855894
tp1329
tp1330
Rp1331
ag1
(g2
g3
(g4
g692
F0.01
F0.91699604743083
tp1332
tp1333
Rp1334
ag1
(g2
g3
(g4
g158
F0.001
F0.9166666666666667
tp1335
tp1336
Rp1337
ag1
(g2
g3
(g4
g122
F0.1
F0.9166666666666666
tp1338
tp1339
Rp1340
ag1
(g2
g3
(g4
g5
(g9
S'^\xbaI\x0c\x02+\xc7?'
p1341
tp1342
Rp1343
F0.1
F0.9163346613545816
tp1344
tp1345
Rp1346
ag1
(g2
g3
(g4
g5
(g9
S'/\xdd$\x06\x81\x95\xf4?'
p1347
tp1348
Rp1349
F0.001
F0.9163346613545816
tp1350
tp1351
Rp1352
ag1
(g2
g3
(g4
g815
F0.001
F0.9162995594713657
tp1353
tp1354
Rp1355
ag1
(g2
g3
(g4
g482
F0.01
F0.9156626506024097
tp1356
tp1357
Rp1358
ag1
(g2
g3
(g4
g5
(g9
S'\x8d\x06\xf0\x16HP\xcc?'
p1359
tp1360
Rp1361
F0.01
F0.9156626506024096
tp1362
tp1363
Rp1364
ag1
(g2
g3
(g4
g5
(g9
S'.\x90\xa0\xf81\xe6\xbe?'
p1365
tp1366
Rp1367
F0.1
F0.9155555555555556
tp1368
tp1369
Rp1370
ag1
(g2
g3
(g4
g5
(g9
S'\xe1z\x14\xaeG\xe1\xde?'
p1371
tp1372
Rp1373
F0.01
F0.9152542372881356
tp1374
tp1375
Rp1376
ag1
(g2
g3
(g4
g5
(g9
S'\xea\x95\xb2\x0cq\xac\x06@'
p1377
tp1378
Rp1379
F0.1
F0.9152542372881356
tp1380
tp1381
Rp1382
ag1
(g2
g3
(g4
g587
F0.01
F0.9150943396226415
tp1383
tp1384
Rp1385
ag1
(g2
g3
(g4
g779
F0.01
F0.914798206278027
tp1386
tp1387
Rp1388
ag1
(g2
g3
(g4
g188
F0.001
F0.9147982062780269
tp1389
tp1390
Rp1391
ag1
(g2
g3
(g4
g1145
F0.001
F0.9142857142857141
tp1392
tp1393
Rp1394
ag1
(g2
g3
(g4
g5
(g9
S'\xc19#J{\x83\xf6?'
p1395
tp1396
Rp1397
F0.01
F0.914027149321267
tp1398
tp1399
Rp1400
ag1
(g2
g3
(g4
g1292
F0.01
F0.914027149321267
tp1401
tp1402
Rp1403
ag1
(g2
g3
(g4
g1379
F0.01
F0.9140271493212669
tp1404
tp1405
Rp1406
ag1
(g2
g3
(g4
g698
F0.01
F0.9140271493212669
tp1407
tp1408
Rp1409
ag1
(g2
g3
(g4
g905
F0.01
F0.9140271493212668
tp1410
tp1411
Rp1412
ag1
(g2
g3
(g4
g1094
F0.001
F0.9137931034482759
tp1413
tp1414
Rp1415
ag1
(g2
g3
(g4
g1259
F0.01
F0.9137931034482759
tp1416
tp1417
Rp1418
ag1
(g2
g3
(g4
g605
F0.01
F0.9137931034482758
tp1419
tp1420
Rp1421
ag1
(g2
g3
(g4
g686
F0.1
F0.9133858267716536
tp1422
tp1423
Rp1424
ag1
(g2
g3
(g4
g488
F0.001
F0.9132420091324202
tp1425
tp1426
Rp1427
ag1
(g2
g3
(g4
g5
(g9
S'\xd0\xd5V\xec/\xbb\xe9?'
p1428
tp1429
Rp1430
F0.01
F0.9130434782608696
tp1431
tp1432
Rp1433
ag1
(g2
g3
(g4
g530
F0.001
F0.9130434782608696
tp1434
tp1435
Rp1436
ag1
(g2
g3
(g4
g5
(g9
S'EGr\xf9\x0f\xe9\xfd?'
p1437
tp1438
Rp1439
F0.01
F0.9130434782608695
tp1440
tp1441
Rp1442
ag1
(g2
g3
(g4
g557
F0.001
F0.9130434782608695
tp1443
tp1444
Rp1445
ag1
(g2
g3
(g4
g1202
F0.01
F0.912621359223301
tp1446
tp1447
Rp1448
ag1
(g2
g3
(g4
g836
F0.01
F0.9124423963133641
tp1449
tp1450
Rp1451
ag1
(g2
g3
(g4
g539
F0.01
F0.9124423963133641
tp1452
tp1453
Rp1454
ag1
(g2
g3
(g4
g5
(g9
S'.n\xa3\x01\xbc\x05\xc2?'
p1455
tp1456
Rp1457
F0.01
F0.912280701754386
tp1458
tp1459
Rp1460
ag1
(g2
g3
(g4
g1304
F0.001
F0.912280701754386
tp1461
tp1462
Rp1463
ag1
(g2
g3
(g4
g290
F0.001
F0.912280701754386
tp1464
tp1465
Rp1466
ag1
(g2
g3
(g4
g377
F0.001
F0.9122807017543859
tp1467
tp1468
Rp1469
ag1
(g2
g3
(g4
g1055
F0.001
F0.9119999999999999
tp1470
tp1471
Rp1472
ag1
(g2
g3
(g4
g224
F0.1
F0.9116279069767442
tp1473
tp1474
Rp1475
ag1
(g2
g3
(g4
g5
(g9
S'\xce\x88\xd2\xde\xe0\x0b\xf1?'
p1476
tp1477
Rp1478
F0.01
F0.9116279069767442
tp1479
tp1480
Rp1481
ag1
(g2
g3
(g4
g1022
F0.1
F0.9116279069767442
tp1482
tp1483
Rp1484
ag1
(g2
g3
(g4
g5
(g9
S'\xe0\xbe\x0e\x9c3\xa2\xa4?'
p1485
tp1486
Rp1487
F0.1
F0.9107142857142857
tp1488
tp1489
Rp1490
ag1
(g2
g3
(g4
g5
(g9
S'vO\x1e\x16jM\xd3?'
p1491
tp1492
Rp1493
F0.01
F0.9106382978723404
tp1494
tp1495
Rp1496
ag1
(g2
g3
(g4
g407
F0.001
F0.9105058365758755
tp1497
tp1498
Rp1499
ag1
(g2
g3
(g4
g638
F0.1
F0.9099099099099099
tp1500
tp1501
Rp1502
ag1
(g2
g3
(g4
g593
F0.001
F0.9098712446351932
tp1503
tp1504
Rp1505
ag1
(g2
g3
(g4
g524
F0.1
F0.9098712446351932
tp1506
tp1507
Rp1508
ag1
(g2
g3
(g4
g5
(g9
S'\xd5\xe7j+\xf6\x97\xdd?'
p1509
tp1510
Rp1511
F0.01
F0.9090909090909091
tp1512
tp1513
Rp1514
ag1
(g2
g3
(g4
g665
F0.1
F0.9090909090909091
tp1515
tp1516
Rp1517
ag1
(g2
g3
(g4
g332
F0.001
F0.909090909090909
tp1518
tp1519
Rp1520
ag1
(g2
g3
(g4
g1073
F0.01
F0.9083333333333333
tp1521
tp1522
Rp1523
ag1
(g2
g3
(g4
g821
F0.001
F0.9082969432314412
tp1524
tp1525
Rp1526
ag1
(g2
g3
(g4
g1010
F0.001
F0.908256880733945
tp1527
tp1528
Rp1529
ag1
(g2
g3
(g4
g842
F0.1
F0.907488986784141
tp1530
tp1531
Rp1532
ag1
(g2
g3
(g4
g1349
F0.01
F0.9074889867841409
tp1533
tp1534
Rp1535
ag1
(g2
g3
(g4
g794
F0.001
F0.9074889867841409
tp1536
tp1537
Rp1538
ag1
(g2
g3
(g4
g431
F0.1
F0.9074889867841409
tp1539
tp1540
Rp1541
ag1
(g2
g3
(g4
g20
F0.001
F0.9068825910931175
tp1542
tp1543
Rp1544
ag1
(g2
g3
(g4
g863
F0.001
F0.9068825910931174
tp1545
tp1546
Rp1547
ag1
(g2
g3
(g4
g5
(g9
S'\x82\xe2\xc7\x98\xbb\x96\xd4?'
p1548
tp1549
Rp1550
F0.01
F0.9067796610169492
tp1551
tp1552
Rp1553
ag1
(g2
g3
(g4
g1163
F0.1
F0.9066666666666667
tp1554
tp1555
Rp1556
ag1
(g2
g3
(g4
g5
(g9
S'\xad\xfa\\m\xc5\xfe\x06@'
p1557
tp1558
Rp1559
F0.001
F0.9066666666666666
tp1560
tp1561
Rp1562
ag1
(g2
g3
(g4
g767
F0.1
F0.9061224489795918
tp1563
tp1564
Rp1565
ag1
(g2
g3
(g4
g5
(g9
S'\x01M\x84\rO\xaf\x94?'
p1566
tp1567
Rp1568
F0.1
F0.9059829059829061
tp1569
tp1570
Rp1571
ag1
(g2
g3
(g4
g704
F0.001
F0.9055118110236221
tp1572
tp1573
Rp1574
ag1
(g2
g3
(g4
g1169
F0.1
F0.9053497942386831
tp1575
tp1576
Rp1577
ag1
(g2
g3
(g4
g170
F0.001
F0.9053497942386831
tp1578
tp1579
Rp1580
ag1
(g2
g3
(g4
g1037
F0.01
F0.9053497942386831
tp1581
tp1582
Rp1583
ag1
(g2
g3
(g4
g152
F0.1
F0.905349794238683
tp1584
tp1585
Rp1586
ag1
(g2
g3
(g4
g1124
F0.1
F0.9051724137931034
tp1587
tp1588
Rp1589
ag1
(g2
g3
(g4
g347
F0.001
F0.9049773755656108
tp1590
tp1591
Rp1592
ag1
(g2
g3
(g4
g725
F0.001
F0.9047619047619048
tp1593
tp1594
Rp1595
ag1
(g2
g3
(g4
g5
(g9
S'!\x8euq\x1b\r\xfa?'
p1596
tp1597
Rp1598
F0.001
F0.9047619047619047
tp1599
tp1600
Rp1601
ag1
(g2
g3
(g4
g506
F0.001
F0.9045643153526971
tp1602
tp1603
Rp1604
ag1
(g2
g3
(g4
g1559
F0.01
F0.904564315352697
tp1605
tp1606
Rp1607
ag1
(g2
g3
(g4
g308
F0.1
F0.9043478260869565
tp1608
tp1609
Rp1610
ag1
(g2
g3
(g4
g956
F0.001
F0.904109589041096
tp1611
tp1612
Rp1613
ag1
(g2
g3
(g4
g1151
F0.001
F0.904
tp1614
tp1615
Rp1616
ag1
(g2
g3
(g4
g413
F0.001
F0.904
tp1617
tp1618
Rp1619
ag1
(g2
g3
(g4
g968
F0.1
F0.9038461538461539
tp1620
tp1621
Rp1622
ag1
(g2
g3
(g4
g182
F0.1
F0.9035087719298246
tp1623
tp1624
Rp1625
ag1
(g2
g3
(g4
g296
F0.1
F0.9035087719298246
tp1626
tp1627
Rp1628
ag1
(g2
g3
(g4
g980
F0.001
F0.9032258064516129
tp1629
tp1630
Rp1631
ag1
(g2
g3
(g4
g1457
F0.1
F0.9029535864978903
tp1632
tp1633
Rp1634
ag1
(g2
g3
(g4
g626
F0.001
F0.9027237354085604
tp1635
tp1636
Rp1637
ag1
(g2
g3
(g4
g86
F0.001
F0.9027237354085603
tp1638
tp1639
Rp1640
ag1
(g2
g3
(g4
g1055
F0.1
F0.9026548672566371
tp1641
tp1642
Rp1643
ag1
(g2
g3
(g4
g1304
F0.1
F0.9023255813953489
tp1644
tp1645
Rp1646
ag1
(g2
g3
(g4
g518
F0.001
F0.9021276595744682
tp1647
tp1648
Rp1649
ag1
(g2
g3
(g4
g74
F0.1
F0.902127659574468
tp1650
tp1651
Rp1652
ag1
(g2
g3
(g4
g731
F0.001
F0.9021276595744679
tp1653
tp1654
Rp1655
ag1
(g2
g3
(g4
g857
F0.001
F0.9012875536480687
tp1656
tp1657
Rp1658
ag1
(g2
g3
(g4
g878
F0.1
F0.9012875536480686
tp1659
tp1660
Rp1661
ag1
(g2
g3
(g4
g674
F0.001
F0.9009009009009009
tp1662
tp1663
Rp1664
ag1
(g2
g3
(g4
g68
F0.001
F0.9003690036900369
tp1665
tp1666
Rp1667
ag1
(g2
g3
(g4
g443
F0.001
F0.9
tp1668
tp1669
Rp1670
ag1
(g2
g3
(g4
g395
F0.1
F0.9
tp1671
tp1672
Rp1673
ag1
(g2
g3
(g4
g443
F0.1
F0.8995633187772925
tp1674
tp1675
Rp1676
ag1
(g2
g3
(g4
g482
F0.1
F0.8995633187772925
tp1677
tp1678
Rp1679
ag1
(g2
g3
(g4
g1598
F0.01
F0.8990825688073394
tp1680
tp1681
Rp1682
ag1
(g2
g3
(g4
g5
(g9
S'j\xbct\x93\x18\x04\xfb?'
p1683
tp1684
Rp1685
F0.01
F0.8986784140969163
tp1686
tp1687
Rp1688
ag1
(g2
g3
(g4
g44
F0.001
F0.8986784140969163
tp1689
tp1690
Rp1691
ag1
(g2
g3
(g4
g116
F0.001
F0.8986784140969163
tp1692
tp1693
Rp1694
ag1
(g2
g3
(g4
g1685
F0.001
F0.8984375
tp1695
tp1696
Rp1697
ag1
(g2
g3
(g4
g5
(g9
S'\xcf\xf7S\xe3\xa5\x9b\xb4?'
p1698
tp1699
Rp1700
F0.01
F0.8979591836734694
tp1701
tp1702
Rp1703
ag1
(g2
g3
(g4
g1343
F0.01
F0.8979591836734694
tp1704
tp1705
Rp1706
ag1
(g2
g3
(g4
g314
F0.001
F0.8979591836734694
tp1707
tp1708
Rp1709
ag1
(g2
g3
(g4
g365
F0.001
F0.8974358974358975
tp1710
tp1711
Rp1712
ag1
(g2
g3
(g4
g716
F0.001
F0.8974358974358974
tp1713
tp1714
Rp1715
ag1
(g2
g3
(g4
g200
F0.1
F0.8965517241379309
tp1716
tp1717
Rp1718
ag1
(g2
g3
(g4
g56
F0.001
F0.8962655601659751
tp1719
tp1720
Rp1721
ag1
(g2
g3
(g4
g911
F0.001
F0.896
tp1722
tp1723
Rp1724
ag1
(g2
g3
(g4
g128
F0.001
F0.8953974895397491
tp1725
tp1726
Rp1727
ag1
(g2
g3
(g4
g494
F0.001
F0.8953974895397491
tp1728
tp1729
Rp1730
ag1
(g2
g3
(g4
g437
F0.001
F0.8951612903225807
tp1731
tp1732
Rp1733
ag1
(g2
g3
(g4
g1439
F0.001
F0.8947368421052632
tp1734
tp1735
Rp1736
ag1
(g2
g3
(g4
g140
F0.001
F0.8947368421052632
tp1737
tp1738
Rp1739
ag1
(g2
g3
(g4
g413
F0.1
F0.8945147679324895
tp1740
tp1741
Rp1742
ag1
(g2
g3
(g4
g389
F0.001
F0.8945147679324894
tp1743
tp1744
Rp1745
ag1
(g2
g3
(g4
g1118
F0.001
F0.8943089430894308
tp1746
tp1747
Rp1748
ag1
(g2
g3
(g4
g449
F0.1
F0.8940092165898618
tp1749
tp1750
Rp1751
ag1
(g2
g3
(g4
g467
F0.1
F0.8940092165898617
tp1752
tp1753
Rp1754
ag1
(g2
g3
(g4
g359
F0.1
F0.8928571428571429
tp1755
tp1756
Rp1757
ag1
(g2
g3
(g4
g5
(g9
S'\xf3\x8eSt$\x97\xed?'
p1758
tp1759
Rp1760
F0.01
F0.8928571428571428
tp1761
tp1762
Rp1763
ag1
(g2
g3
(g4
g962
F0.001
F0.8928571428571428
tp1764
tp1765
Rp1766
ag1
(g2
g3
(g4
g809
F0.001
F0.8927038626609441
tp1767
tp1768
Rp1769
ag1
(g2
g3
(g4
g1760
F0.1
F0.8925619834710744
tp1770
tp1771
Rp1772
ag1
(g2
g3
(g4
g638
F0.001
F0.8925619834710744
tp1773
tp1774
Rp1775
ag1
(g2
g3
(g4
g680
F0.001
F0.892018779342723
tp1776
tp1777
Rp1778
ag1
(g2
g3
(g4
g266
F0.001
F0.8914728682170543
tp1779
tp1780
Rp1781
ag1
(g2
g3
(g4
g1379
F0.001
F0.890909090909091
tp1782
tp1783
Rp1784
ag1
(g2
g3
(g4
g110
F0.1
F0.8906882591093116
tp1785
tp1786
Rp1787
ag1
(g2
g3
(g4
g254
F0.1
F0.8898305084745763
tp1788
tp1789
Rp1790
ag1
(g2
g3
(g4
g1157
F0.001
F0.888888888888889
tp1791
tp1792
Rp1793
ag1
(g2
g3
(g4
g578
F0.001
F0.888888888888889
tp1794
tp1795
Rp1796
ag1
(g2
g3
(g4
g62
F0.001
F0.888888888888889
tp1797
tp1798
Rp1799
ag1
(g2
g3
(g4
g788
F0.1
F0.8888888888888888
tp1800
tp1801
Rp1802
ag1
(g2
g3
(g4
g44
F0.1
F0.8888888888888888
tp1803
tp1804
Rp1805
ag1
(g2
g3
(g4
g788
F0.001
F0.8888888888888887
tp1806
tp1807
Rp1808
ag1
(g2
g3
(g4
g1367
F0.01
F0.888
tp1809
tp1810
Rp1811
ag1
(g2
g3
(g4
g1493
F0.1
F0.8879310344827587
tp1812
tp1813
Rp1814
ag1
(g2
g3
(g4
g1043
F0.001
F0.8870967741935484
tp1815
tp1816
Rp1817
ag1
(g2
g3
(g4
g941
F0.1
F0.8870967741935483
tp1818
tp1819
Rp1820
ag1
(g2
g3
(g4
g617
F0.001
F0.8870292887029289
tp1821
tp1822
Rp1823
ag1
(g2
g3
(g4
g116
F0.1
F0.8861788617886179
tp1824
tp1825
Rp1826
ag1
(g2
g3
(g4
g1397
F0.001
F0.8849557522123894
tp1827
tp1828
Rp1829
ag1
(g2
g3
(g4
g767
F0.001
F0.8833333333333333
tp1830
tp1831
Rp1832
ag1
(g2
g3
(g4
g194
F0.001
F0.8828828828828829
tp1833
tp1834
Rp1835
ag1
(g2
g3
(g4
g476
F0.001
F0.8823529411764706
tp1836
tp1837
Rp1838
ag1
(g2
g3
(g4
g1100
F0.1
F0.8813559322033899
tp1839
tp1840
Rp1841
ag1
(g2
g3
(g4
g26
F0.001
F0.8813559322033898
tp1842
tp1843
Rp1844
ag1
(g2
g3
(g4
g530
F0.1
F0.8807339449541284
tp1845
tp1846
Rp1847
ag1
(g2
g3
(g4
g803
F0.1
F0.8793774319066148
tp1848
tp1849
Rp1850
ag1
(g2
g3
(g4
g1700
F0.1
F0.8786610878661087
tp1851
tp1852
Rp1853
ag1
(g2
g3
(g4
g332
F0.1
F0.8782608695652174
tp1854
tp1855
Rp1856
ag1
(g2
g3
(g4
g14
F0.1
F0.8780487804878049
tp1857
tp1858
Rp1859
ag1
(g2
g3
(g4
g1073
F0.1
F0.8778280542986426
tp1860
tp1861
Rp1862
ag1
(g2
g3
(g4
g698
F0.1
F0.8761904761904762
tp1863
tp1864
Rp1865
ag1
(g2
g3
(g4
g752
F0.1
F0.8761061946902654
tp1866
tp1867
Rp1868
ag1
(g2
g3
(g4
g563
F0.1
F0.8755760368663594
tp1869
tp1870
Rp1871
ag1
(g2
g3
(g4
g569
F0.001
F0.8755364806866952
tp1872
tp1873
Rp1874
ag1
(g2
g3
(g4
g710
F0.1
F0.875
tp1875
tp1876
Rp1877
ag1
(g2
g3
(g4
g38
F0.1
F0.875
tp1878
tp1879
Rp1880
ag1
(g2
g3
(g4
g1049
F0.001
F0.874493927125506
tp1881
tp1882
Rp1883
ag1
(g2
g3
(g4
g947
F0.001
F0.874074074074074
tp1884
tp1885
Rp1886
ag1
(g2
g3
(g4
g146
F0.1
F0.8738738738738738
tp1887
tp1888
Rp1889
ag1
(g2
g3
(g4
g779
F0.1
F0.8738738738738738
tp1890
tp1891
Rp1892
ag1
(g2
g3
(g4
g500
F0.001
F0.8717948717948718
tp1893
tp1894
Rp1895
ag1
(g2
g3
(g4
g437
F0.1
F0.871369294605809
tp1896
tp1897
Rp1898
ag1
(g2
g3
(g4
g383
F0.1
F0.8702928870292886
tp1899
tp1900
Rp1901
ag1
(g2
g3
(g4
g32
F0.1
F0.8695652173913043
tp1902
tp1903
Rp1904
ag1
(g2
g3
(g4
g164
F0.001
F0.8680555555555556
tp1905
tp1906
Rp1907
ag1
(g2
g3
(g4
g5
(g9
S'^)\xcb\x10\xc7\xba\xd0?'
p1908
tp1909
Rp1910
F0.01
F0.8677685950413223
tp1911
tp1912
Rp1913
ag1
(g2
g3
(g4
g236
F0.1
F0.8666666666666666
tp1914
tp1915
Rp1916
ag1
(g2
g3
(g4
g320
F0.001
F0.8660714285714286
tp1917
tp1918
Rp1919
ag1
(g2
g3
(g4
g347
F0.1
F0.8660714285714286
tp1920
tp1921
Rp1922
ag1
(g2
g3
(g4
g1910
F0.1
F0.8658008658008659
tp1923
tp1924
Rp1925
ag1
(g2
g3
(g4
g617
F0.1
F0.865546218487395
tp1926
tp1927
Rp1928
ag1
(g2
g3
(g4
g920
F0.1
F0.865546218487395
tp1929
tp1930
Rp1931
ag1
(g2
g3
(g4
g158
F0.1
F0.8648648648648648
tp1932
tp1933
Rp1934
ag1
(g2
g3
(g4
g224
F0.001
F0.8638132295719845
tp1935
tp1936
Rp1937
ag1
(g2
g3
(g4
g1157
F0.1
F0.8634361233480177
tp1938
tp1939
Rp1940
ag1
(g2
g3
(g4
g1130
F0.1
F0.8632478632478633
tp1941
tp1942
Rp1943
ag1
(g2
g3
(g4
g128
F0.1
F0.8630705394190872
tp1944
tp1945
Rp1946
ag1
(g2
g3
(g4
g1043
F0.1
F0.8630705394190871
tp1947
tp1948
Rp1949
ag1
(g2
g3
(g4
g758
F0.1
F0.8620689655172413
tp1950
tp1951
Rp1952
ag1
(g2
g3
(g4
g545
F0.1
F0.8619246861924686
tp1953
tp1954
Rp1955
ag1
(g2
g3
(g4
g725
F0.1
F0.8617886178861788
tp1956
tp1957
Rp1958
ag1
(g2
g3
(g4
g260
F0.1
F0.8617886178861788
tp1959
tp1960
Rp1961
ag1
(g2
g3
(g4
g1322
F0.001
F0.8616600790513834
tp1962
tp1963
Rp1964
ag1
(g2
g3
(g4
g98
F0.1
F0.8608695652173913
tp1965
tp1966
Rp1967
ag1
(g2
g3
(g4
g863
F0.1
F0.8608695652173912
tp1968
tp1969
Rp1970
ag1
(g2
g3
(g4
g857
F0.1
F0.8607594936708861
tp1971
tp1972
Rp1973
ag1
(g2
g3
(g4
g1430
F0.1
F0.8606557377049181
tp1974
tp1975
Rp1976
ag1
(g2
g3
(g4
g905
F0.1
F0.860655737704918
tp1977
tp1978
Rp1979
ag1
(g2
g3
(g4
g401
F0.01
F0.8605577689243028
tp1980
tp1981
Rp1982
ag1
(g2
g3
(g4
g1328
F0.1
F0.859504132231405
tp1983
tp1984
Rp1985
ag1
(g2
g3
(g4
g1373
F0.1
F0.858447488584475
tp1986
tp1987
Rp1988
ag1
(g2
g3
(g4
g476
F0.1
F0.8584474885844748
tp1989
tp1990
Rp1991
ag1
(g2
g3
(g4
g716
F0.1
F0.8571428571428571
tp1992
tp1993
Rp1994
ag1
(g2
g3
(g4
g1478
F0.1
F0.857142857142857
tp1995
tp1996
Rp1997
ag1
(g2
g3
(g4
g1430
F0.001
F0.856
tp1998
tp1999
Rp2000
ag1
(g2
g3
(g4
g962
F0.1
F0.8546255506607929
tp2001
tp2002
Rp2003
ag1
(g2
g3
(g4
g212
F0.1
F0.8544600938967136
tp2004
tp2005
Rp2006
ag1
(g2
g3
(g4
g890
F0.001
F0.853658536585366
tp2007
tp2008
Rp2009
ag1
(g2
g3
(g4
g80
F0.1
F0.8533333333333335
tp2010
tp2011
Rp2012
ag1
(g2
g3
(g4
g995
F0.01
F0.8524590163934426
tp2013
tp2014
Rp2015
ag1
(g2
g3
(g4
g1217
F0.1
F0.8523206751054851
tp2016
tp2017
Rp2018
ag1
(g2
g3
(g4
g1511
F0.1
F0.852017937219731
tp2019
tp2020
Rp2021
ag1
(g2
g3
(g4
g1322
F0.1
F0.8514056224899598
tp2022
tp2023
Rp2024
ag1
(g2
g3
(g4
g569
F0.1
F0.851063829787234
tp2025
tp2026
Rp2027
ag1
(g2
g3
(g4
g551
F0.1
F0.8502024291497975
tp2028
tp2029
Rp2030
ag1
(g2
g3
(g4
g176
F0.1
F0.8497854077253219
tp2031
tp2032
Rp2033
ag1
(g2
g3
(g4
g518
F0.1
F0.8497854077253219
tp2034
tp2035
Rp2036
ag1
(g2
g3
(g4
g842
F0.001
F0.8494208494208495
tp2037
tp2038
Rp2039
ag1
(g2
g3
(g4
g1094
F0.1
F0.8493150684931506
tp2040
tp2041
Rp2042
ag1
(g2
g3
(g4
g1550
F0.1
F0.8490566037735849
tp2043
tp2044
Rp2045
ag1
(g2
g3
(g4
g170
F0.1
F0.8484848484848485
tp2046
tp2047
Rp2048
ag1
(g2
g3
(g4
g1478
F0.001
F0.8479262672811061
tp2049
tp2050
Rp2051
ag1
(g2
g3
(g4
g1037
F0.1
F0.847926267281106
tp2052
tp2053
Rp2054
ag1
(g2
g3
(g4
g500
F0.1
F0.8476190476190476
tp2055
tp2056
Rp2057
ag1
(g2
g3
(g4
g194
F0.1
F0.8471615720524017
tp2058
tp2059
Rp2060
ag1
(g2
g3
(g4
g455
F0.1
F0.8465116279069766
tp2061
tp2062
Rp2063
ag1
(g2
g3
(g4
g1361
F0.1
F0.8461538461538461
tp2064
tp2065
Rp2066
ag1
(g2
g3
(g4
g980
F0.1
F0.8461538461538461
tp2067
tp2068
Rp2069
ag1
(g2
g3
(g4
g1145
F0.1
F0.8454545454545455
tp2070
tp2071
Rp2072
ag1
(g2
g3
(g4
g320
F0.1
F0.8451882845188285
tp2073
tp2074
Rp2075
ag1
(g2
g3
(g4
g1247
F0.1
F0.8442622950819673
tp2076
tp2077
Rp2078
ag1
(g2
g3
(g4
g92
F0.1
F0.8442622950819673
tp2079
tp2080
Rp2081
ag1
(g2
g3
(g4
g1016
F0.1
F0.8440366972477065
tp2082
tp2083
Rp2084
ag1
(g2
g3
(g4
g314
F0.1
F0.8430493273542601
tp2085
tp2086
Rp2087
ag1
(g2
g3
(g4
g1349
F0.1
F0.8429752066115702
tp2088
tp2089
Rp2090
ag1
(g2
g3
(g4
g599
F0.1
F0.8425925925925926
tp2091
tp2092
Rp2093
ag1
(g2
g3
(g4
g26
F0.1
F0.8425925925925924
tp2094
tp2095
Rp2096
ag1
(g2
g3
(g4
g578
F0.1
F0.8425531914893617
tp2097
tp2098
Rp2099
ag1
(g2
g3
(g4
g1292
F0.1
F0.8421052631578948
tp2100
tp2101
Rp2102
ag1
(g2
g3
(g4
g425
F0.1
F0.8421052631578947
tp2103
tp2104
Rp2105
ag1
(g2
g3
(g4
g665
F0.001
F0.8416988416988417
tp2106
tp2107
Rp2108
ag1
(g2
g3
(g4
g134
F0.001
F0.8408163265306123
tp2109
tp2110
Rp2111
ag1
(g2
g3
(g4
g821
F0.1
F0.839622641509434
tp2112
tp2113
Rp2114
ag1
(g2
g3
(g4
g1559
F0.1
F0.8389830508474576
tp2115
tp2116
Rp2117
ag1
(g2
g3
(g4
g557
F0.1
F0.8384279475982533
tp2118
tp2119
Rp2120
ag1
(g2
g3
(g4
g512
F0.1
F0.8381742738589212
tp2121
tp2122
Rp2123
ag1
(g2
g3
(g4
g290
F0.1
F0.8374384236453203
tp2124
tp2125
Rp2126
ag1
(g2
g3
(g4
g419
F0.1
F0.8372093023255813
tp2127
tp2128
Rp2129
ag1
(g2
g3
(g4
g947
F0.1
F0.8370044052863437
tp2130
tp2131
Rp2132
ag1
(g2
g3
(g4
g731
F0.1
F0.8363636363636364
tp2133
tp2134
Rp2135
ag1
(g2
g3
(g4
g1439
F0.1
F0.832618025751073
tp2136
tp2137
Rp2138
ag1
(g2
g3
(g4
g407
F0.1
F0.8311688311688312
tp2139
tp2140
Rp2141
ag1
(g2
g3
(g4
g1118
F0.1
F0.8311688311688311
tp2142
tp2143
Rp2144
ag1
(g2
g3
(g4
g1064
F0.1
F0.8307692307692308
tp2145
tp2146
Rp2147
ag1
(g2
g3
(g4
g1259
F0.1
F0.8303571428571429
tp2148
tp2149
Rp2150
ag1
(g2
g3
(g4
g461
F0.1
F0.8294930875576036
tp2151
tp2152
Rp2153
ag1
(g2
g3
(g4
g539
F0.1
F0.8292682926829268
tp2154
tp2155
Rp2156
ag1
(g2
g3
(g4
g794
F0.1
F0.8282828282828283
tp2157
tp2158
Rp2159
ag1
(g2
g3
(g4
g692
F0.1
F0.8281249999999999
tp2160
tp2161
Rp2162
ag1
(g2
g3
(g4
g989
F0.1
F0.827906976744186
tp2163
tp2164
Rp2165
ag1
(g2
g3
(g4
g1397
F0.1
F0.8272727272727274
tp2166
tp2167
Rp2168
ag1
(g2
g3
(g4
g50
F0.1
F0.8272727272727272
tp2169
tp2170
Rp2171
ag1
(g2
g3
(g4
g218
F0.1
F0.8270042194092827
tp2172
tp2173
Rp2174
ag1
(g2
g3
(g4
g626
F0.1
F0.8266666666666665
tp2175
tp2176
Rp2177
ag1
(g2
g3
(g4
g743
F0.1
F0.8264462809917357
tp2178
tp2179
Rp2180
ag1
(g2
g3
(g4
g230
F0.1
F0.8258706467661691
tp2181
tp2182
Rp2183
ag1
(g2
g3
(g4
g1511
F0.001
F0.8257575757575758
tp2184
tp2185
Rp2186
ag1
(g2
g3
(g4
g488
F0.1
F0.825
tp2187
tp2188
Rp2189
ag1
(g2
g3
(g4
g1760
F0.001
F0.8244274809160306
tp2190
tp2191
Rp2192
ag1
(g2
g3
(g4
g1082
F0.1
F0.824
tp2193
tp2194
Rp2195
ag1
(g2
g3
(g4
g1373
F0.001
F0.8235294117647058
tp2196
tp2197
Rp2198
ag1
(g2
g3
(g4
g389
F0.1
F0.8224299065420562
tp2199
tp2200
Rp2201
ag1
(g2
g3
(g4
g278
F0.1
F0.821917808219178
tp2202
tp2203
Rp2204
ag1
(g2
g3
(g4
g1028
F0.1
F0.8209606986899564
tp2205
tp2206
Rp2207
ag1
(g2
g3
(g4
g1328
F0.001
F0.8207171314741036
tp2208
tp2209
Rp2210
ag1
(g2
g3
(g4
g932
F0.001
F0.8205128205128205
tp2211
tp2212
Rp2213
ag1
(g2
g3
(g4
g1211
F0.1
F0.8202764976958525
tp2214
tp2215
Rp2216
ag1
(g2
g3
(g4
g1598
F0.1
F0.8193832599118943
tp2217
tp2218
Rp2219
ag1
(g2
g3
(g4
g506
F0.1
F0.8189655172413794
tp2220
tp2221
Rp2222
ag1
(g2
g3
(g4
g1487
F0.01
F0.818840579710145
tp2223
tp2224
Rp2225
ag1
(g2
g3
(g4
g164
F0.1
F0.8186046511627907
tp2226
tp2227
Rp2228
ag1
(g2
g3
(g4
g377
F0.1
F0.8181818181818182
tp2229
tp2230
Rp2231
ag1
(g2
g3
(g4
g680
F0.1
F0.8161434977578476
tp2232
tp2233
Rp2234
ag1
(g2
g3
(g4
g647
F0.1
F0.8157894736842104
tp2235
tp2236
Rp2237
ag1
(g2
g3
(g4
g56
F0.1
F0.8155339805825242
tp2238
tp2239
Rp2240
ag1
(g2
g3
(g4
g62
F0.1
F0.8155339805825242
tp2241
tp2242
Rp2243
ag1
(g2
g3
(g4
g911
F0.1
F0.8148148148148148
tp2244
tp2245
Rp2246
ag1
(g2
g3
(g4
g494
F0.1
F0.8144796380090498
tp2247
tp2248
Rp2249
ag1
(g2
g3
(g4
g956
F0.1
F0.8144796380090498
tp2250
tp2251
Rp2252
ag1
(g2
g3
(g4
g1010
F0.1
F0.8144796380090498
tp2253
tp2254
Rp2255
ag1
(g2
g3
(g4
g338
F0.1
F0.8141592920353982
tp2256
tp2257
Rp2258
ag1
(g2
g3
(g4
g1685
F0.1
F0.8138528138528137
tp2259
tp2260
Rp2261
ag1
(g2
g3
(g4
g20
F0.1
F0.8135593220338984
tp2262
tp2263
Rp2264
ag1
(g2
g3
(g4
g248
F0.1
F0.8110599078341013
tp2265
tp2266
Rp2267
ag1
(g2
g3
(g4
g188
F0.1
F0.8093023255813954
tp2268
tp2269
Rp2270
ag1
(g2
g3
(g4
g242
F0.1
F0.8093023255813954
tp2271
tp2272
Rp2273
ag1
(g2
g3
(g4
g1151
F0.1
F0.8090909090909091
tp2274
tp2275
Rp2276
ag1
(g2
g3
(g4
g872
F0.1
F0.808695652173913
tp2277
tp2278
Rp2279
ag1
(g2
g3
(g4
g326
F0.1
F0.8083333333333333
tp2280
tp2281
Rp2282
ag1
(g2
g3
(g4
g836
F0.001
F0.8072727272727274
tp2283
tp2284
Rp2285
ag1
(g2
g3
(g4
g605
F0.001
F0.8062015503875968
tp2286
tp2287
Rp2288
ag1
(g2
g3
(g4
g932
F0.1
F0.8056872037914691
tp2289
tp2290
Rp2291
ag1
(g2
g3
(g4
g599
F0.001
F0.8056537102473498
tp2292
tp2293
Rp2294
ag1
(g2
g3
(g4
g890
F0.1
F0.8054298642533936
tp2295
tp2296
Rp2297
ag1
(g2
g3
(g4
g1493
F0.001
F0.8052805280528054
tp2298
tp2299
Rp2300
ag1
(g2
g3
(g4
g272
F0.1
F0.8041237113402062
tp2301
tp2302
Rp2303
ag1
(g2
g3
(g4
g68
F0.1
F0.8018867924528302
tp2304
tp2305
Rp2306
ag1
(g2
g3
(g4
g371
F0.1
F0.8018018018018017
tp2307
tp2308
Rp2309
ag1
(g2
g3
(g4
g104
F0.1
F0.801762114537445
tp2310
tp2311
Rp2312
ag1
(g2
g3
(g4
g593
F0.1
F0.8
tp2313
tp2314
Rp2315
ag1
(g2
g3
(g4
g1202
F0.1
F0.8
tp2316
tp2317
Rp2318
ag1
(g2
g3
(g4
g1241
F0.1
F0.8
tp2319
tp2320
Rp2321
ag1
(g2
g3
(g4
g941
F0.001
F0.7999999999999999
tp2322
tp2323
Rp2324
ag1
(g2
g3
(g4
g704
F0.1
F0.7999999999999999
tp2325
tp2326
Rp2327
ag1
(g2
g3
(g4
g122
F0.001
F0.7986798679867987
tp2328
tp2329
Rp2330
ag1
(g2
g3
(g4
g284
F0.1
F0.7980769230769231
tp2331
tp2332
Rp2333
ag1
(g2
g3
(g4
g815
F0.1
F0.7938144329896907
tp2334
tp2335
Rp2336
ag1
(g2
g3
(g4
g653
F0.1
F0.7931034482758621
tp2337
tp2338
Rp2339
ag1
(g2
g3
(g4
g686
F0.001
F0.7886178861788617
tp2340
tp2341
Rp2342
ag1
(g2
g3
(g4
g587
F0.1
F0.7867298578199051
tp2343
tp2344
Rp2345
ag1
(g2
g3
(g4
g737
F0.1
F0.7850467289719626
tp2346
tp2347
Rp2348
ag1
(g2
g3
(g4
g1169
F0.001
F0.7755102040816326
tp2349
tp2350
Rp2351
ag1
(g2
g3
(g4
g674
F0.1
F0.7623318385650224
tp2352
tp2353
Rp2354
ag1
(g2
g3
(g4
g611
F0.001
F0.75625
tp2355
tp2356
Rp2357
ag1
(g2
g3
(g4
g1217
F0.001
F0.7544483985765125
tp2358
tp2359
Rp2360
ag1
(g2
g3
(g4
g1910
F0.001
F0.7476038338658146
tp2361
tp2362
Rp2363
ag1
(g2
g3
(g4
g401
F0.001
F0.7467532467532468
tp2364
tp2365
Rp2366
ag1
(g2
g3
(g4
g1361
F0.001
F0.7452229299363057
tp2367
tp2368
Rp2369
ag1
(g2
g3
(g4
g1367
F0.001
F0.7439024390243902
tp2370
tp2371
Rp2372
ag1
(g2
g3
(g4
g32
F0.001
F0.7424749163879599
tp2373
tp2374
Rp2375
ag1
(g2
g3
(g4
g1568
F0.001
F0.7423312883435582
tp2376
tp2377
Rp2378
ag1
(g2
g3
(g4
g1568
F0.01
F0.7382550335570469
tp2379
tp2380
Rp2381
ag1
(g2
g3
(g4
g1457
F0.001
F0.7341772151898733
tp2382
tp2383
Rp2384
ag1
(g2
g3
(g4
g1550
F0.001
F0.7328767123287672
tp2385
tp2386
Rp2387
ag1
(g2
g3
(g4
g5
(g9
S'-C\x1c\xeb\xe26\x1a?'
p2388
tp2389
Rp2390
F0.01
F0.7323076923076923
tp2391
tp2392
Rp2393
ag1
(g2
g3
(g4
g2390
F0.1
F0.7238095238095238
tp2394
tp2395
Rp2396
ag1
(g2
g3
(g4
g2390
F0.001
F0.7220447284345047
tp2397
tp2398
Rp2399
ag1
(g2
g3
(g4
g1487
F0.001
F0.7147335423197493
tp2400
tp2401
Rp2402
ag1
(g2
g3
(g4
g1700
F0.001
F0.7119741100323624
tp2403
tp2404
Rp2405
ag1
(g2
g3
(g4
g1343
F0.001
F0.7105263157894737
tp2406
tp2407
Rp2408
ag1
(g2
g3
(g4
g995
F0.001
F0.7079037800687286
tp2409
tp2410
Rp2411
a.