(lp0
ccopy_reg
_reconstructor
p1
(cBenchmarkSVM
Point
p2
c__builtin__
tuple
p3
(S'rbf'
p4
cnumpy.core.multiarray
scalar
p5
(cnumpy
dtype
p6
(S'f8'
p7
I0
I1
tp8
Rp9
(I3
S'<'
p10
NNNI-1
I-1
I0
tp11
bS'\xa0\x89\xb0\xe1\xe9\x95\xe4?'
p12
tp13
Rp14
F0.9722222222222222
tp15
tp16
Rp17
ag1
(g2
g3
(g4
g5
(g9
S'\xf6(\\\x8f\xc2\xf5\x07@'
p18
tp19
Rp20
F0.9719626168224299
tp21
tp22
Rp23
ag1
(g2
g3
(g4
g5
(g9
S'}\xd0\xb3Y\xf59\x05@'
p24
tp25
Rp26
F0.9646017699115044
tp27
tp28
Rp29
ag1
(g2
g3
(g4
g5
(g9
S'\xd9_vO\x1e\x16\xf9?'
p30
tp31
Rp32
F0.9617021276595743
tp33
tp34
Rp35
ag1
(g2
g3
(g4
g5
(g9
S'\x08\xac\x1cZd;\xfe?'
p36
tp37
Rp38
F0.9606986899563319
tp39
tp40
Rp41
ag1
(g2
g3
(g4
g5
(g9
S'\xde$\x06\x81\x95\xc3\x08@'
p42
tp43
Rp44
F0.9585253456221198
tp45
tp46
Rp47
ag1
(g2
g3
(g4
g5
(g9
S'\x02\x9a\x08\x1b\x9e^\xe1?'
p48
tp49
Rp50
F0.9576271186440678
tp51
tp52
Rp53
ag1
(g2
g3
(g4
g5
(g9
S'\x82\xe2\xc7\x98\xbb\x96\xfd?'
p54
tp55
Rp56
F0.9576271186440678
tp57
tp58
Rp59
ag1
(g2
g3
(g4
g5
(g9
S'\xd3Mb\x10X\xb9\x00@'
p60
tp61
Rp62
F0.9568965517241379
tp63
tp64
Rp65
ag1
(g2
g3
(g4
g5
(g9
S'\xc7\xdc\xb5\x84|\xd0\x02@'
p66
tp67
Rp68
F0.9565217391304348
tp69
tp70
Rp71
ag1
(g2
g3
(g4
g5
(g9
S'\x10\x0b\xb5\xa6y\xc7\x03@'
p72
tp73
Rp74
F0.9557522123893805
tp75
tp76
Rp77
ag1
(g2
g3
(g4
g5
(g9
S'\xd0\xd5V\xec/;\x0e@'
p78
tp79
Rp80
F0.9554655870445343
tp81
tp82
Rp83
ag1
(g2
g3
(g4
g5
(g9
S'\xce\x88\xd2\xde\xe0\x0b\xf1?'
p84
tp85
Rp86
F0.954954954954955
tp87
tp88
Rp89
ag1
(g2
g3
(g4
g5
(g9
S'\xd2\x91\\\xfeCz\x07@'
p90
tp91
Rp92
F0.9531914893617022
tp93
tp94
Rp95
ag1
(g2
g3
(g4
g5
(g9
S'\xaf\xb6b\x7f\xd9=\x00@'
p96
tp97
Rp98
F0.9527896995708154
tp99
tp100
Rp101
ag1
(g2
g3
(g4
g5
(g9
S'vO\x1e\x16jM\xfc?'
p102
tp103
Rp104
F0.9523809523809523
tp105
tp106
Rp107
ag1
(g2
g3
(g4
g5
(g9
S'X9\xb4\xc8v\xbe\x04@'
p108
tp109
Rp110
F0.9523809523809523
tp111
tp112
Rp113
ag1
(g2
g3
(g4
g5
(g9
S'\xd3o_\x07\xce\x19\x04@'
p114
tp115
Rp116
F0.9519650655021834
tp117
tp118
Rp119
ag1
(g2
g3
(g4
g5
(g9
S"'1\x08\xac\x1cZ\x06@"
p120
tp121
Rp122
F0.9519650655021834
tp123
tp124
Rp125
ag1
(g2
g3
(g4
g5
(g9
S'\xdbh\x00o\x81\x04\xeb?'
p126
tp127
Rp128
F0.9515418502202644
tp129
tp130
Rp131
ag1
(g2
g3
(g4
g5
(g9
S'M\x84\rO\xaf\x14\x00@'
p132
tp133
Rp134
F0.9515418502202644
tp135
tp136
Rp137
ag1
(g2
g3
(g4
g5
(g9
S'\x85Z\xd3\xbc\xe3\x14\xf0?'
p138
tp139
Rp140
F0.9515418502202643
tp141
tp142
Rp143
ag1
(g2
g3
(g4
g5
(g9
S"TR'\xa0\x89\xb0\xf1?"
p144
tp145
Rp146
F0.9515418502202643
tp147
tp148
Rp149
ag1
(g2
g3
(g4
g5
(g9
S'W}\xae\xb6b\x7f\x0b@'
p150
tp151
Rp152
F0.9515418502202643
tp153
tp154
Rp155
ag1
(g2
g3
(g4
g5
(g9
S'd\xeeZB>h\t@'
p156
tp157
Rp158
F0.9511111111111112
tp159
tp160
Rp161
ag1
(g2
g3
(g4
g5
(g9
S'H\xbf}\x1d8g\xf0?'
p162
tp163
Rp164
F0.9511111111111111
tp165
tp166
Rp167
ag1
(g2
g3
(g4
g5
(g9
S'\xebs\xb5\x15\xfbK\x03@'
p168
tp169
Rp170
F0.9502262443438914
tp171
tp172
Rp173
ag1
(g2
g3
(g4
g5
(g9
S'\x8aA`\xe5\xd0"\x03@'
p174
tp175
Rp176
F0.949771689497717
tp177
tp178
Rp179
ag1
(g2
g3
(g4
g5
(g9
S'G\x03x\x0b$(\xf7?'
p180
tp181
Rp182
F0.9493087557603687
tp183
tp184
Rp185
ag1
(g2
g3
(g4
g5
(g9
S'S\x96!\x8euq\xf8?'
p186
tp187
Rp188
F0.9493087557603687
tp189
tp190
Rp191
ag1
(g2
g3
(g4
g5
(g9
S'\xcf\xf7S\xe3\xa5\x9b\xb4?'
p192
tp193
Rp194
F0.9491525423728814
tp195
tp196
Rp197
ag1
(g2
g3
(g4
g5
(g9
S'j\xbct\x93\x18\x04\xfb?'
p198
tp199
Rp200
F0.9491525423728814
tp201
tp202
Rp203
ag1
(g2
g3
(g4
g5
(g9
S'\x84\x9e\xcd\xaa\xcf\xd5\xf6?'
p204
tp205
Rp206
F0.9488372093023255
tp207
tp208
Rp209
ag1
(g2
g3
(g4
g5
(g9
S'\xfc\x18s\xd7\x12\xf2\xfc?'
p210
tp211
Rp212
F0.9478260869565217
tp213
tp214
Rp215
ag1
(g2
g3
(g4
g5
(g9
S'\xa9\x13\xd0D\xd8\xf0\xf3?'
p216
tp217
Rp218
F0.9477911646586344
tp219
tp220
Rp221
ag1
(g2
g3
(g4
g5
(g9
S'o\xa3\x01\xbc\x05\x12\x0e@'
p222
tp223
Rp224
F0.9473684210526315
tp225
tp226
Rp227
ag1
(g2
g3
(g4
g5
(g9
S'\xd0\xd5V\xec/\xbb\xe9?'
p228
tp229
Rp230
F0.9464285714285715
tp231
tp232
Rp233
ag1
(g2
g3
(g4
g5
(g9
S'\xf2A\xcff\xd5\xe7\xf4?'
p234
tp235
Rp236
F0.9464285714285714
tp237
tp238
Rp239
ag1
(g2
g3
(g4
g5
(g9
S'\x02\xbc\x05\x12\x14?\t@'
p240
tp241
Rp242
F0.9454545454545454
tp243
tp244
Rp245
ag1
(g2
g3
(g4
g5
(g9
S'j\xbct\x93\x18\x04\xd2?'
p246
tp247
Rp248
F0.9446808510638298
tp249
tp250
Rp251
ag1
(g2
g3
(g4
g5
(g9
S'\xe7\xfb\xa9\xf1\xd2M\xec?'
p252
tp253
Rp254
F0.944
tp255
tp256
Rp257
ag1
(g2
g3
(g4
g5
(g9
S'=\x9bU\x9f\xab\xad\x0f@'
p258
tp259
Rp260
F0.9439252336448598
tp261
tp262
Rp263
ag1
(g2
g3
(g4
g5
(g9
S'2\x08\xac\x1cZd\x0e@'
p264
tp265
Rp266
F0.9437229437229437
tp267
tp268
Rp269
ag1
(g2
g3
(g4
g5
(g9
S'\xcb\x10\xc7\xba\xb8\x8d\xfe?'
p270
tp271
Rp272
F0.943231441048035
tp273
tp274
Rp275
ag1
(g2
g3
(g4
g5
(g9
S'q=\n\xd7\xa3\xf0\x03@'
p276
tp277
Rp278
F0.943231441048035
tp279
tp280
Rp281
ag1
(g2
g3
(g4
g5
(g9
S'\x10\xe9\xb7\xaf\x03g\x00@'
p282
tp283
Rp284
F0.9426229508196722
tp285
tp286
Rp287
ag1
(g2
g3
(g4
g5
(g9
S'\x9a\x08\x1b\x9e^)\xd7?'
p288
tp289
Rp290
F0.9422222222222222
tp291
tp292
Rp293
ag1
(g2
g3
(g4
g5
(g9
S'\x96\xb2\x0cq\xac\x0b\x01@'
p294
tp295
Rp296
F0.9422222222222222
tp297
tp298
Rp299
ag1
(g2
g3
(g4
g5
(g9
S'!\x8euq\x1b\r\xfa?'
p300
tp301
Rp302
F0.9421487603305786
tp303
tp304
Rp305
ag1
(g2
g3
(g4
g5
(g9
S'\xbbI\x0c\x02+\x87\x01@'
p306
tp307
Rp308
F0.9421487603305785
tp309
tp310
Rp311
ag1
(g2
g3
(g4
g5
(g9
S'-!\x1f\xf4lV\xfb?'
p312
tp313
Rp314
F0.9417040358744395
tp315
tp316
Rp317
ag1
(g2
g3
(g4
g5
(g9
S'\xdch\x00o\x81\x84\x0f@'
p318
tp319
Rp320
F0.9417040358744394
tp321
tp322
Rp323
ag1
(g2
g3
(g4
g5
(g9
S'r\x1b\r\xe0-\x90\x00@'
p324
tp325
Rp326
F0.9416666666666667
tp327
tp328
Rp329
ag1
(g2
g3
(g4
g5
(g9
S'J\x0c\x02+\x87\x16\xe9?'
p330
tp331
Rp332
F0.9416342412451363
tp333
tp334
Rp335
ag1
(g2
g3
(g4
g5
(g9
S'\xe4\xf2\x1f\xd2o_\xfa?'
p336
tp337
Rp338
F0.9411764705882353
tp339
tp340
Rp341
ag1
(g2
g3
(g4
g5
(g9
S'\xf7\x06_\x98L\x95\x04@'
p342
tp343
Rp344
F0.9411764705882353
tp345
tp346
Rp347
ag1
(g2
g3
(g4
g5
(g9
S'd\xcc]K\xc8\x07\x06@'
p348
tp349
Rp350
F0.9411764705882353
tp351
tp352
Rp353
ag1
(g2
g3
(g4
g5
(g9
S'\xf5JY\x868V\x0b@'
p354
tp355
Rp356
F0.9411764705882353
tp357
tp358
Rp359
ag1
(g2
g3
(g4
g5
(g9
S'{\x14\xaeG\xe1\xfa\x0b@'
p360
tp361
Rp362
F0.9406779661016949
tp363
tp364
Rp365
ag1
(g2
g3
(g4
g5
(g9
S'\x9c\xc4 \xb0rh\xf9?'
p366
tp367
Rp368
F0.9406392694063928
tp369
tp370
Rp371
ag1
(g2
g3
(g4
g5
(g9
S'm\xc5\xfe\xb2{\xf2\xec?'
p372
tp373
Rp374
F0.9401709401709402
tp375
tp376
Rp377
ag1
(g2
g3
(g4
g5
(g9
S'\xc5 \xb0rh\x91\t@'
p378
tp379
Rp380
F0.9400921658986175
tp381
tp382
Rp383
ag1
(g2
g3
(g4
g5
(g9
S'\xac>W[\xb1\xbf\r@'
p384
tp385
Rp386
F0.9397590361445783
tp387
tp388
Rp389
ag1
(g2
g3
(g4
g5
(g9
S'#J{\x83/L\xf3?'
p390
tp391
Rp392
F0.939655172413793
tp393
tp394
Rp395
ag1
(g2
g3
(g4
g5
(g9
S'\x00\x00\x00\x00\x00\x00\x10@'
p396
tp397
Rp398
F0.939655172413793
tp399
tp400
Rp401
ag1
(g2
g3
(g4
g5
(g9
S'\xa7W\xca2\xc4\xb1\xfa?'
p402
tp403
Rp404
F0.9391304347826087
tp405
tp406
Rp407
ag1
(g2
g3
(g4
g5
(g9
S'\xe9\xb7\xaf\x03\xe7\x0c\n@'
p408
tp409
Rp410
F0.9391304347826087
tp411
tp412
Rp413
ag1
(g2
g3
(g4
g5
(g9
S'\xac\x1cZd;_\n@'
p414
tp415
Rp416
F0.9391304347826087
tp417
tp418
Rp419
ag1
(g2
g3
(g4
g5
(g9
S'o\x81\x04\xc5\x8f\xb1\n@'
p420
tp421
Rp422
F0.9391304347826087
tp423
tp424
Rp425
ag1
(g2
g3
(g4
g5
(g9
S'\xb8\xaf\x03\xe7\x8c(\xe7?'
p426
tp427
Rp428
F0.9385964912280702
tp429
tp430
Rp431
ag1
(g2
g3
(g4
g5
(g9
S'M\xa6\nF%u\x03@'
p432
tp433
Rp434
F0.9385964912280702
tp435
tp436
Rp437
ag1
(g2
g3
(g4
g5
(g9
S'\xac\x1cZd;\xdf\xe5?'
p438
tp439
Rp440
F0.9377990430622011
tp441
tp442
Rp443
ag1
(g2
g3
(g4
g5
(g9
S'\xf3\x8eSt$\x97\xed?'
p444
tp445
Rp446
F0.9377990430622011
tp447
tp448
Rp449
ag1
(g2
g3
(g4
g5
(g9
S'\x16\xfb\xcb\xee\xc9\xc3\xf8?'
p450
tp451
Rp452
F0.937799043062201
tp453
tp454
Rp455
ag1
(g2
g3
(g4
g5
(g9
S'\x0b$(~\x8c\xb9\xf0?'
p456
tp457
Rp458
F0.9377593360995852
tp459
tp460
Rp461
ag1
(g2
g3
(g4
g5
(g9
S'\xb8\xaf\x03\xe7\x8c\xa8\x0b@'
p462
tp463
Rp464
F0.9377593360995852
tp465
tp466
Rp467
ag1
(g2
g3
(g4
g5
(g9
S'\xb3\xeas\xb5\x15\xfb\xfb?'
p468
tp469
Rp470
F0.9375
tp471
tp472
Rp473
ag1
(g2
g3
(g4
g5
(g9
S'\x87\xa7W\xca2D\r@'
p474
tp475
Rp476
F0.9372384937238494
tp477
tp478
Rp479
ag1
(g2
g3
(g4
g5
(g9
S'\xbf}\x1d8gD\xfd?'
p480
tp481
Rp482
F0.9371980676328502
tp483
tp484
Rp485
ag1
(g2
g3
(g4
g5
(g9
S'\xb2.n\xa3\x01\xbc\xd9?'
p486
tp487
Rp488
F0.9369369369369369
tp489
tp490
Rp491
ag1
(g2
g3
(g4
g5
(g9
S'\x03\x9a\x08\x1b\x9e\xde\x05@'
p492
tp493
Rp494
F0.9363636363636363
tp495
tp496
Rp497
ag1
(g2
g3
(g4
g5
(g9
S'\xe6\xae%\xe4\x83\x9e\xf3?'
p498
tp499
Rp500
F0.9361702127659575
tp501
tp502
Rp503
ag1
(g2
g3
(g4
g5
(g9
S'L\xc8\x07=\x9b\xd5\x06@'
p504
tp505
Rp506
F0.9361702127659574
tp507
tp508
Rp509
ag1
(g2
g3
(g4
g5
(g9
S'(\x0f\x0b\xb5\xa6\xf9\x02@'
p510
tp511
Rp512
F0.9356223175965666
tp513
tp514
Rp515
ag1
(g2
g3
(g4
g5
(g9
S'\xbak\t\xf9\xa0\xe7\x04@'
p516
tp517
Rp518
F0.9351851851851852
tp519
tp520
Rp521
ag1
(g2
g3
(g4
g5
(g9
S'z6\xab>W[\x0f@'
p522
tp523
Rp524
F0.9351851851851852
tp525
tp526
Rp527
ag1
(g2
g3
(g4
g5
(g9
S'\x9d\x80&\xc2\x86\xa7\xf2?'
p528
tp529
Rp530
F0.9351851851851851
tp531
tp532
Rp533
ag1
(g2
g3
(g4
g5
(g9
S'\x8euq\x1b\r\xe0\xfe?'
p534
tp535
Rp536
F0.935064935064935
tp537
tp538
Rp539
ag1
(g2
g3
(g4
g5
(g9
S'Y\x17\xb7\xd1\x00^\x01@'
p540
tp541
Rp542
F0.935064935064935
tp543
tp544
Rp545
ag1
(g2
g3
(g4
g5
(g9
S'\xa0\xab\xad\xd8_v\x0c@'
p546
tp547
Rp548
F0.935064935064935
tp549
tp550
Rp551
ag1
(g2
g3
(g4
g5
(g9
S'\nh"lxz\xf7?'
p552
tp553
Rp554
F0.9344978165938865
tp555
tp556
Rp557
ag1
(g2
g3
(g4
g5
(g9
S'/\xdd$\x06\x81\x95\xf4?'
p558
tp559
Rp560
F0.9339622641509433
tp561
tp562
Rp563
ag1
(g2
g3
(g4
g5
(g9
S'?W[\xb1\xbf\xec\x08@'
p564
tp565
Rp566
F0.9339622641509433
tp567
tp568
Rp569
ag1
(g2
g3
(g4
g5
(g9
S'>yX\xa85\xcd\xe7?'
p570
tp571
Rp572
F0.9339207048458149
tp573
tp574
Rp575
ag1
(g2
g3
(g4
g5
(g9
S'\xa6\x9b\xc4 \xb0r\xd8?'
p576
tp577
Rp578
F0.9333333333333333
tp579
tp580
Rp581
ag1
(g2
g3
(g4
g5
(g9
S'U\x9f\xab\xad\xd8_\xea?'
p582
tp583
Rp584
F0.9333333333333333
tp585
tp586
Rp587
ag1
(g2
g3
(g4
g5
(g9
S'5\x80\xb7@\x82\xe2\x00@'
p588
tp589
Rp590
F0.9333333333333332
tp591
tp592
Rp593
ag1
(g2
g3
(g4
g5
(g9
S'\x0e-\xb2\x9d\xef\xa7\xe2?'
p594
tp595
Rp596
F0.9327731092436976
tp597
tp598
Rp599
ag1
(g2
g3
(g4
g5
(g9
S'\xf0\x85\xc9T\xc1\xa8\xfb?'
p600
tp601
Rp602
F0.9327354260089685
tp603
tp604
Rp605
ag1
(g2
g3
(g4
g5
(g9
S'\xae\xd8_vO\x9e\x03@'
p606
tp607
Rp608
F0.9326923076923077
tp609
tp610
Rp611
ag1
(g2
g3
(g4
g5
(g9
S'\x95\xf6\x06_\x98\xcc\x07@'
p612
tp613
Rp614
F0.9326923076923077
tp615
tp616
Rp617
ag1
(g2
g3
(g4
g5
(g9
S'K\xea\x044\x116\n@'
p618
tp619
Rp620
F0.9322033898305084
tp621
tp622
Rp623
ag1
(g2
g3
(g4
g5
(g9
S'&u\x02\x9a\x08\x1b\r@'
p624
tp625
Rp626
F0.9322033898305084
tp627
tp628
Rp629
ag1
(g2
g3
(g4
g5
(g9
S'V\x9f\xab\xad\xd8\xdf\x0e@'
p630
tp631
Rp632
F0.9322033898305084
tp633
tp634
Rp635
ag1
(g2
g3
(g4
g5
(g9
S'\xa1g\xb3\xeas\xb5\x05@'
p636
tp637
Rp638
F0.9321266968325793
tp639
tp640
Rp641
ag1
(g2
g3
(g4
g5
(g9
S'\xf5lV}\xae\xb6\x0e@'
p642
tp643
Rp644
F0.9316239316239316
tp645
tp646
Rp647
ag1
(g2
g3
(g4
g5
(g9
S'yX\xa85\xcd;\xee?'
p648
tp649
Rp650
F0.9313725490196079
tp651
tp652
Rp653
ag1
(g2
g3
(g4
g5
(g9
S'2\xe6\xae%\xe4\x03\x0b@'
p654
tp655
Rp656
F0.9313725490196078
tp657
tp658
Rp659
ag1
(g2
g3
(g4
g5
(g9
S'a2U0*\xa9\xeb?'
p660
tp661
Rp662
F0.9310344827586208
tp663
tp664
Rp665
ag1
(g2
g3
(g4
g5
(g9
S'\x1a\xe2X\x17\xb7\xd1\x0b@'
p666
tp667
Rp668
F0.9310344827586208
tp669
tp670
Rp671
ag1
(g2
g3
(g4
g5
(g9
S'\xa1\x89\xb0\xe1\xe9\x15\t@'
p672
tp673
Rp674
F0.9310344827586207
tp675
tp676
Rp677
ag1
(g2
g3
(g4
g5
(g9
S'\x1a\xc0[ A\xf1\xe3?'
p678
tp679
Rp680
F0.9304347826086956
tp681
tp682
Rp683
ag1
(g2
g3
(g4
g5
(g9
S';p\xce\x88\xd2\xde\xf5?'
p684
tp685
Rp686
F0.9304347826086956
tp687
tp688
Rp689
ag1
(g2
g3
(g4
g5
(g9
S'@5^\xbaI\x8c\x05@'
p690
tp691
Rp692
F0.9304347826086956
tp693
tp694
Rp695
ag1
(g2
g3
(g4
g5
(g9
S'J\x0c\x02+\x87\x96\r@'
p696
tp697
Rp698
F0.9304347826086956
tp699
tp700
Rp701
ag1
(g2
g3
(g4
g5
(g9
S'\x91\xed|?5^\xf1?'
p702
tp703
Rp704
F0.9298245614035088
tp705
tp706
Rp707
ag1
(g2
g3
(g4
g5
(g9
S'\x94\xf6\x06_\x98L\xe3?'
p708
tp709
Rp710
F0.9298245614035087
tp711
tp712
Rp713
ag1
(g2
g3
(g4
g5
(g9
S'\xc9T\xc1\xa8\xa4N\xdc?'
p714
tp715
Rp716
F0.9294605809128631
tp717
tp718
Rp719
ag1
(g2
g3
(g4
g5
(g9
S'\xfe\xd4x\xe9&1\xf6?'
p720
tp721
Rp722
F0.9294605809128631
tp723
tp724
Rp725
ag1
(g2
g3
(g4
g5
(g9
S'EGr\xf9\x0f\xe9\xfd?'
p726
tp727
Rp728
F0.9292035398230089
tp729
tp730
Rp731
ag1
(g2
g3
(g4
g5
(g9
S'\x04x\x0b$(~\x02@'
p732
tp733
Rp734
F0.9292035398230089
tp735
tp736
Rp737
ag1
(g2
g3
(g4
g5
(g9
S'p_\x07\xce\x19Q\x07@'
p738
tp739
Rp740
F0.9292035398230087
tp741
tp742
Rp743
ag1
(g2
g3
(g4
g5
(g9
S'>yX\xa85M\x0c@'
p744
tp745
Rp746
F0.9289099526066351
tp747
tp748
Rp749
ag1
(g2
g3
(g4
g5
(g9
S'Q\xda\x1b|a2\xff?'
p750
tp751
Rp752
F0.9285714285714286
tp753
tp754
Rp755
ag1
(g2
g3
(g4
g5
(g9
S'\x93:\x01M\x84\x8d\x0e@'
p756
tp757
Rp758
F0.9285714285714286
tp759
tp760
Rp761
ag1
(g2
g3
(g4
g5
(g9
S'|\xd0\xb3Y\xf5\xb9\xe0?'
p762
tp763
Rp764
F0.9279279279279279
tp765
tp766
Rp767
ag1
(g2
g3
(g4
g5
(g9
S'\x14?\xc6\xdc\xb5\x84\xff?'
p768
tp769
Rp770
F0.9276595744680851
tp771
tp772
Rp773
ag1
(g2
g3
(g4
g5
(g9
S"'S\x05\xa3\x92\xba\t@"
p774
tp775
Rp776
F0.927659574468085
tp777
tp778
Rp779
ag1
(g2
g3
(g4
g5
(g9
S'\x82\xe2\xc7\x98\xbb\x96\xd4?'
p780
tp781
Rp782
F0.9272727272727272
tp783
tp784
Rp785
ag1
(g2
g3
(g4
g5
(g9
S'\x0eO\xaf\x94e\x88\n@'
p786
tp787
Rp788
F0.9272727272727272
tp789
tp790
Rp791
ag1
(g2
g3
(g4
g5
(g9
S'\x85\xebQ\xb8\x1e\x85\xef?'
p792
tp793
Rp794
F0.9272727272727271
tp795
tp796
Rp797
ag1
(g2
g3
(g4
g5
(g9
S'4\xa2\xb47\xf8B\x04@'
p798
tp799
Rp800
F0.927038626609442
tp801
tp802
Rp803
ag1
(g2
g3
(g4
g5
(g9
S'\x1b\xc0[ Aq\x08@'
p804
tp805
Rp806
F0.9264069264069265
tp807
tp808
Rp809
ag1
(g2
g3
(g4
g5
(g9
S'\xad\xfa\\m\xc5\xfe\x06@'
p810
tp811
Rp812
F0.9261083743842364
tp813
tp814
Rp815
ag1
(g2
g3
(g4
g5
(g9
S'A\x13a\xc3\xd3+\x02@'
p816
tp817
Rp818
F0.925764192139738
tp819
tp820
Rp821
ag1
(g2
g3
(g4
g5
(g9
S'\xc19#J{\x83\xf6?'
p822
tp823
Rp824
F0.9251101321585904
tp825
tp826
Rp827
ag1
(g2
g3
(g4
g5
(g9
S'c\x10X9\xb4\xc8\x0c@'
p828
tp829
Rp830
F0.9245283018867926
tp831
tp832
Rp833
ag1
(g2
g3
(g4
g5
(g9
S'\x9f\xcd\xaa\xcf\xd5\xd6\x0f@'
p834
tp835
Rp836
F0.9245283018867925
tp837
tp838
Rp839
ag1
(g2
g3
(g4
g5
(g9
S'e\xaa`TR\xa7\x02@'
p840
tp841
Rp842
F0.9244444444444444
tp843
tp844
Rp845
ag1
(g2
g3
(g4
g5
(g9
S'\xbd\xc1\x17&S\x05\xdb?'
p846
tp847
Rp848
F0.9237668161434978
tp849
tp850
Rp851
ag1
(g2
g3
(g4
g5
(g9
S'\x88c]\xdcF\x03\xe2?'
p852
tp853
Rp854
F0.9237288135593221
tp855
tp856
Rp857
ag1
(g2
g3
(g4
g5
(g9
S'\xa2E\xb6\xf3\xfdT\x02@'
p858
tp859
Rp860
F0.9237288135593221
tp861
tp862
Rp863
ag1
(g2
g3
(g4
g5
(g9
S'\xf8\xe4a\xa1\xd64\x01@'
p864
tp865
Rp866
F0.9230769230769231
tp867
tp868
Rp869
ag1
(g2
g3
(g4
g5
(g9
S'\x17\xb7\xd1\x00\xde\x02\xf2?'
p870
tp871
Rp872
F0.923076923076923
tp873
tp874
Rp875
ag1
(g2
g3
(g4
g5
(g9
S'3\xc4\xb1.n\xa3\x07@'
p876
tp877
Rp878
F0.923076923076923
tp879
tp880
Rp881
ag1
(g2
g3
(g4
g5
(g9
S'\xb5\xa6y\xc7):\xf5?'
p882
tp883
Rp884
F0.9224489795918367
tp885
tp886
Rp887
ag1
(g2
g3
(g4
g5
(g9
S'\x1c|a2U\xb0\x01@'
p888
tp889
Rp890
F0.9218106995884774
tp891
tp892
Rp893
ag1
(g2
g3
(g4
g5
(g9
S'\xb9\x8d\x06\xf0\x16H\x08@'
p894
tp895
Rp896
F0.9218106995884774
tp897
tp898
Rp899
ag1
(g2
g3
(g4
g5
(g9
S'\x89c]\xdcF\x83\x06@'
p900
tp901
Rp902
F0.9217391304347825
tp903
tp904
Rp905
ag1
(g2
g3
(g4
g5
(g9
S'\xc4B\xadi\xde\xf1\x0c@'
p906
tp907
Rp908
F0.9217391304347825
tp909
tp910
Rp911
ag1
(g2
g3
(g4
g5
(g9
S'_)\xcb\x10\xc7\xba\xf9?'
p912
tp913
Rp914
F0.9216589861751152
tp915
tp916
Rp917
ag1
(g2
g3
(g4
g5
(g9
S'X[\xb1\xbf\xec\x1e\x08@'
p918
tp919
Rp920
F0.9216589861751152
tp921
tp922
Rp923
ag1
(g2
g3
(g4
g5
(g9
S'\xe1z\x14\xaeG\xe1\xde?'
p924
tp925
Rp926
F0.9216589861751151
tp927
tp928
Rp929
ag1
(g2
g3
(g4
g5
(g9
S'\x901w-!\x1f\xf8?'
p930
tp931
Rp932
F0.9210526315789473
tp933
tp934
Rp935
ag1
(g2
g3
(g4
g5
(g9
S'~\xae\xb6b\x7f\xd9\x01@'
p936
tp937
Rp938
F0.9210526315789473
tp939
tp940
Rp941
ag1
(g2
g3
(g4
g5
(g9
S'\xde\x02\t\x8a\x1fc\x05@'
p942
tp943
Rp944
F0.9203539823008849
tp945
tp946
Rp947
ag1
(g2
g3
(g4
g5
(g9
S'|\xf2\xb0Pk\x9a\x08@'
p948
tp949
Rp950
F0.9201877934272301
tp951
tp952
Rp953
ag1
(g2
g3
(g4
g5
(g9
S'\xd1\xb3Y\xf5\xb9\xda\n@'
p954
tp955
Rp956
F0.9196428571428571
tp957
tp958
Rp959
ag1
(g2
g3
(g4
g5
(g9
S'&S\x05\xa3\x92:\xe5?'
p960
tp961
Rp962
F0.9193548387096775
tp963
tp964
Rp965
ag1
(g2
g3
(g4
g5
(g9
S'\xf6\x06_\x98L\x15\xe0?'
p966
tp967
Rp968
F0.9184549356223175
tp969
tp970
Rp971
ag1
(g2
g3
(g4
g5
(g9
S'\rq\xac\x8b\xdb\xe8\r@'
p972
tp973
Rp974
F0.9181818181818183
tp975
tp976
Rp977
ag1
(g2
g3
(g4
g5
(g9
S'.\x90\xa0\xf81\xe6\xbe?'
p978
tp979
Rp980
F0.9178743961352657
tp981
tp982
Rp983
ag1
(g2
g3
(g4
g5
(g9
S'lxz\xa5,C\xf4?'
p984
tp985
Rp986
F0.9170305676855894
tp987
tp988
Rp989
ag1
(g2
g3
(g4
g5
(g9
S'\x88\x85Z\xd3\xbc\xe3\t@'
p990
tp991
Rp992
F0.9159663865546218
tp993
tp994
Rp995
ag1
(g2
g3
(g4
g5
(g9
S'\x96\xd4\th"l\x04@'
p996
tp997
Rp998
F0.9155555555555557
tp999
tp1000
Rp1001
ag1
(g2
g3
(g4
g5
(g9
S'9\xb4\xc8v\xbe\x9f\xfc?'
p1002
tp1003
Rp1004
F0.9155555555555556
tp1005
tp1006
Rp1007
ag1
(g2
g3
(g4
g5
(g9
S'^\xbaI\x0c\x02+\xc7?'
p1008
tp1009
Rp1010
F0.9152542372881356
tp1011
tp1012
Rp1013
ag1
(g2
g3
(g4
g5
(g9
S'x\x0b$(~\x8c\xf5?'
p1014
tp1015
Rp1016
F0.9150943396226416
tp1017
tp1018
Rp1019
ag1
(g2
g3
(g4
g5
(g9
S'\xda\x1b|a2U\xf2?'
p1020
tp1021
Rp1022
F0.9150943396226414
tp1023
tp1024
Rp1025
ag1
(g2
g3
(g4
g5
(g9
S'\x1b\x9e^)\xcb\x10\x05@'
p1026
tp1027
Rp1028
F0.9145728643216081
tp1029
tp1030
Rp1031
ag1
(g2
g3
(g4
g5
(g9
S'2\xe6\xae%\xe4\x83\xe6?'
p1032
tp1033
Rp1034
F0.9140271493212669
tp1035
tp1036
Rp1037
ag1
(g2
g3
(g4
g5
(g9
S'\xc6\xfe\xb2{\xf20\x06@'
p1038
tp1039
Rp1040
F0.9137931034482759
tp1041
tp1042
Rp1043
ag1
(g2
g3
(g4
g5
(g9
S'\xb7\xd1\x00\xde\x02\t\x0f@'
p1044
tp1045
Rp1046
F0.9134615384615385
tp1047
tp1048
Rp1049
ag1
(g2
g3
(g4
g5
(g9
S'\xa5,C\x1c\xeb\xe2\xce?'
p1050
tp1051
Rp1052
F0.9130434782608695
tp1053
tp1054
Rp1055
ag1
(g2
g3
(g4
g5
(g9
S'\x8euq\x1b\r\xe0\xd5?'
p1056
tp1057
Rp1058
F0.9121338912133892
tp1059
tp1060
Rp1061
ag1
(g2
g3
(g4
g5
(g9
S'.n\xa3\x01\xbc\x05\xc2?'
p1062
tp1063
Rp1064
F0.9113924050632912
tp1065
tp1066
Rp1067
ag1
(g2
g3
(g4
g5
(g9
S'vO\x1e\x16jM\xd3?'
p1068
tp1069
Rp1070
F0.9113924050632912
tp1071
tp1072
Rp1073
ag1
(g2
g3
(g4
g5
(g9
S'\xd5\xe7j+\xf6\x97\xdd?'
p1074
tp1075
Rp1076
F0.9107142857142856
tp1077
tp1078
Rp1079
ag1
(g2
g3
(g4
g5
(g9
S'\xdf\xe0\x0b\x93\xa9\x02\x02@'
p1080
tp1081
Rp1082
F0.9090909090909092
tp1083
tp1084
Rp1085
ag1
(g2
g3
(g4
g5
(g9
S'`\xe5\xd0"\xdb\xf9\xf2?'
p1086
tp1087
Rp1088
F0.9082969432314411
tp1089
tp1090
Rp1091
ag1
(g2
g3
(g4
g5
(g9
S"\x0f-\xb2\x9d\xef'\x07@"
p1092
tp1093
Rp1094
F0.9074074074074073
tp1095
tp1096
Rp1097
ag1
(g2
g3
(g4
g5
(g9
S'\xddF\x03x\x0b$\x0c@'
p1098
tp1099
Rp1100
F0.9073170731707318
tp1101
tp1102
Rp1103
ag1
(g2
g3
(g4
g5
(g9
S'^)\xcb\x10\xc7\xba\xd0?'
p1104
tp1105
Rp1106
F0.9066666666666666
tp1107
tp1108
Rp1109
ag1
(g2
g3
(g4
g5
(g9
S'\xea\x95\xb2\x0cq\xac\x06@'
p1110
tp1111
Rp1112
F0.9064039408866996
tp1113
tp1114
Rp1115
ag1
(g2
g3
(g4
g5
(g9
S'\xe9\xd9\xac\xfa\\m\r@'
p1116
tp1117
Rp1118
F0.905349794238683
tp1119
tp1120
Rp1121
ag1
(g2
g3
(g4
g5
(g9
S'\xcd\xcc\xcc\xcc\xcc\xcc\xf7?'
p1122
tp1123
Rp1124
F0.9049773755656108
tp1125
tp1126
Rp1127
ag1
(g2
g3
(g4
g5
(g9
S'\x01\xde\x02\t\x8a\x9f\x0c@'
p1128
tp1129
Rp1130
F0.9043478260869564
tp1131
tp1132
Rp1133
ag1
(g2
g3
(g4
g5
(g9
S'?W[\xb1\xbf\xec\xae?'
p1134
tp1135
Rp1136
F0.9004329004329005
tp1137
tp1138
Rp1139
ag1
(g2
g3
(g4
g5
(g9
S'\xc4B\xadi\xdeq\xe8?'
p1140
tp1141
Rp1142
F0.9
tp1143
tp1144
Rp1145
ag1
(g2
g3
(g4
g5
(g9
S'\x8d\x06\xf0\x16HP\xcc?'
p1146
tp1147
Rp1148
F0.8981481481481481
tp1149
tp1150
Rp1151
ag1
(g2
g3
(g4
g5
(g9
S'v\xe0\x9c\x11\xa5\xbd\xc9?'
p1152
tp1153
Rp1154
F0.8977777777777778
tp1155
tp1156
Rp1157
ag1
(g2
g3
(g4
g5
(g9
S'\xff!\xfd\xf6u\xe0\xee?'
p1158
tp1159
Rp1160
F0.8959276018099547
tp1161
tp1162
Rp1163
ag1
(g2
g3
(g4
g5
(g9
S'\x94\x18\x04V\x0e-\x0b@'
p1164
tp1165
Rp1166
F0.892018779342723
tp1167
tp1168
Rp1169
ag1
(g2
g3
(g4
g5
(g9
S'\xffC\xfa\xed\xeb\xc0\xb9?'
p1170
tp1171
Rp1172
F0.8899082568807339
tp1173
tp1174
Rp1175
ag1
(g2
g3
(g4
g5
(g9
S'\xe0\xbe\x0e\x9c3\xa2\xa4?'
p1176
tp1177
Rp1178
F0.888888888888889
tp1179
tp1180
Rp1181
ag1
(g2
g3
(g4
g5
(g9
S'\x19\x04V\x0e-2\x0f@'
p1182
tp1183
Rp1184
F0.888888888888889
tp1185
tp1186
Rp1187
ag1
(g2
g3
(g4
g5
(g9
S'F\x94\xf6\x06_\x98\xc4?'
p1188
tp1189
Rp1190
F0.8878504672897196
tp1191
tp1192
Rp1193
ag1
(g2
g3
(g4
g5
(g9
S'\xd7\xa3p=\n\xd7\xff?'
p1194
tp1195
Rp1196
F0.8877551020408163
tp1197
tp1198
Rp1199
ag1
(g2
g3
(g4
g5
(g9
S'\x01M\x84\rO\xaf\x94?'
p1200
tp1201
Rp1202
F0.852589641434263
tp1203
tp1204
Rp1205
ag1
(g2
g3
(g4
g5
(g9
S'-C\x1c\xeb\xe26\x1a?'
p1206
tp1207
Rp1208
F0.7055016181229774
tp1209
tp1210
Rp1211
a.