(lp0
ccopy_reg
_reconstructor
p1
(cBenchmarkSVM
Point_3D
p2
c__builtin__
tuple
p3
(S'linear'
p4
cnumpy.core.multiarray
scalar
p5
(cnumpy
dtype
p6
(S'f8'
p7
I0
I1
tp8
Rp9
(I3
S'<'
p10
NNNI-1
I-1
I0
tp11
bS'\xce\x88\xd2\xde\xe0\x0b\xf1?'
p12
tp13
Rp14
F0.01
F0.9785407725321887
tp15
tp16
Rp17
ag1
(g2
g3
(g4
g5
(g9
S'L\xc8\x07=\x9b\xd5\x06@'
p18
tp19
Rp20
F0.1
F0.9680365296803655
tp21
tp22
Rp23
ag1
(g2
g3
(g4
g5
(g9
S'\xe0\xbe\x0e\x9c3\xa2\xa4?'
p24
tp25
Rp26
F0.01
F0.9669421487603307
tp27
tp28
Rp29
ag1
(g2
g3
(g4
g5
(g9
S'\xb8\xaf\x03\xe7\x8c(\xe7?'
p30
tp31
Rp32
F0.01
F0.9642857142857142
tp33
tp34
Rp35
ag1
(g2
g3
(g4
g5
(g9
S'\xf6\x06_\x98L\x15\xe0?'
p36
tp37
Rp38
F0.01
F0.9613733905579399
tp39
tp40
Rp41
ag1
(g2
g3
(g4
g5
(g9
S'_)\xcb\x10\xc7\xba\xf9?'
p42
tp43
Rp44
F0.01
F0.9606299212598426
tp45
tp46
Rp47
ag1
(g2
g3
(g4
g5
(g9
S'\x901w-!\x1f\xf8?'
p48
tp49
Rp50
F0.1
F0.9603524229074888
tp51
tp52
Rp53
ag1
(g2
g3
(g4
g5
(g9
S'/\xdd$\x06\x81\x95\xf4?'
p54
tp55
Rp56
F0.001
F0.9596774193548386
tp57
tp58
Rp59
ag1
(g2
g3
(g4
g5
(g9
S'\xda\x1b|a2U\xf2?'
p60
tp61
Rp62
F0.01
F0.9596412556053812
tp63
tp64
Rp65
ag1
(g2
g3
(g4
g5
(g9
S'\x9a\x08\x1b\x9e^)\xd7?'
p66
tp67
Rp68
F0.01
F0.9583333333333334
tp69
tp70
Rp71
ag1
(g2
g3
(g4
g5
(g9
S'\x82\xe2\xc7\x98\xbb\x96\xfd?'
p72
tp73
Rp74
F0.1
F0.9576271186440679
tp75
tp76
Rp77
ag1
(g2
g3
(g4
g5
(g9
S'\xe1z\x14\xaeG\xe1\xde?'
p78
tp79
Rp80
F0.01
F0.9576271186440678
tp81
tp82
Rp83
ag1
(g2
g3
(g4
g5
(g9
S'\xff!\xfd\xf6u\xe0\xee?'
p84
tp85
Rp86
F0.1
F0.9572649572649573
tp87
tp88
Rp89
ag1
(g2
g3
(g4
g5
(g9
S'vO\x1e\x16jM\xd3?'
p90
tp91
Rp92
F0.1
F0.956896551724138
tp93
tp94
Rp95
ag1
(g2
g3
(g4
g26
F0.1
F0.9568965517241379
tp96
tp97
Rp98
ag1
(g2
g3
(g4
g5
(g9
S'{\x14\xaeG\xe1\xfa\x0b@'
p99
tp100
Rp101
F0.001
F0.9565217391304348
tp102
tp103
Rp104
ag1
(g2
g3
(g4
g5
(g9
S'2\xe6\xae%\xe4\x03\x0b@'
p105
tp106
Rp107
F0.1
F0.9561403508771931
tp108
tp109
Rp110
ag1
(g2
g3
(g4
g50
F0.01
F0.956140350877193
tp111
tp112
Rp113
ag1
(g2
g3
(g4
g5
(g9
S'\x04x\x0b$(~\x02@'
p114
tp115
Rp116
F0.01
F0.9553571428571428
tp117
tp118
Rp119
ag1
(g2
g3
(g4
g5
(g9
S'~\xae\xb6b\x7f\xd9\x01@'
p120
tp121
Rp122
F0.01
F0.9547325102880659
tp123
tp124
Rp125
ag1
(g2
g3
(g4
g5
(g9
S'\xb2.n\xa3\x01\xbc\xd9?'
p126
tp127
Rp128
F0.01
F0.9543568464730291
tp129
tp130
Rp131
ag1
(g2
g3
(g4
g5
(g9
S'\x14?\xc6\xdc\xb5\x84\xff?'
p132
tp133
Rp134
F0.001
F0.9541284403669724
tp135
tp136
Rp137
ag1
(g2
g3
(g4
g5
(g9
S'\x87\xa7W\xca2D\r@'
p138
tp139
Rp140
F0.1
F0.9539748953974895
tp141
tp142
Rp143
ag1
(g2
g3
(g4
g5
(g9
S'S\x96!\x8euq\xf8?'
p144
tp145
Rp146
F0.01
F0.9537037037037037
tp147
tp148
Rp149
ag1
(g2
g3
(g4
g74
F0.01
F0.9537037037037037
tp150
tp151
Rp152
ag1
(g2
g3
(g4
g5
(g9
S'^\xbaI\x0c\x02+\xc7?'
p153
tp154
Rp155
F0.001
F0.9535864978902954
tp156
tp157
Rp158
ag1
(g2
g3
(g4
g5
(g9
S'\xf5JY\x868V\x0b@'
p159
tp160
Rp161
F0.01
F0.9535864978902953
tp162
tp163
Rp164
ag1
(g2
g3
(g4
g5
(g9
S'x\x0b$(~\x8c\xf5?'
p165
tp166
Rp167
F0.1
F0.9531914893617022
tp168
tp169
Rp170
ag1
(g2
g3
(g4
g5
(g9
S'\xd3Mb\x10X\xb9\x00@'
p171
tp172
Rp173
F0.1
F0.9527896995708155
tp174
tp175
Rp176
ag1
(g2
g3
(g4
g5
(g9
S'r\x1b\r\xe0-\x90\x00@'
p177
tp178
Rp179
F0.1
F0.9523809523809523
tp180
tp181
Rp182
ag1
(g2
g3
(g4
g5
(g9
S'\x96\xd4\th"l\x04@'
p183
tp184
Rp185
F0.01
F0.9523809523809523
tp186
tp187
Rp188
ag1
(g2
g3
(g4
g5
(g9
S'@5^\xbaI\x8c\x05@'
p189
tp190
Rp191
F0.1
F0.9523809523809523
tp192
tp193
Rp194
ag1
(g2
g3
(g4
g5
(g9
S'A\x13a\xc3\xd3+\x02@'
p195
tp196
Rp197
F0.01
F0.9520000000000001
tp198
tp199
Rp200
ag1
(g2
g3
(g4
g92
F0.01
F0.9519650655021834
tp201
tp202
Rp203
ag1
(g2
g3
(g4
g5
(g9
S'9\xb4\xc8v\xbe\x9f\xfc?'
p204
tp205
Rp206
F0.001
F0.9519650655021834
tp207
tp208
Rp209
ag1
(g2
g3
(g4
g191
F0.01
F0.9516129032258064
tp210
tp211
Rp212
ag1
(g2
g3
(g4
g5
(g9
S'\xac>W[\xb1\xbf\r@'
p213
tp214
Rp215
F0.001
F0.9512195121951219
tp216
tp217
Rp218
ag1
(g2
g3
(g4
g5
(g9
S'c\x10X9\xb4\xc8\x0c@'
p219
tp220
Rp221
F0.001
F0.9511111111111112
tp222
tp223
Rp224
ag1
(g2
g3
(g4
g5
(g9
S'\xb7\xd1\x00\xde\x02\t\x0f@'
p225
tp226
Rp227
F0.1
F0.9511111111111112
tp228
tp229
Rp230
ag1
(g2
g3
(g4
g5
(g9
S'?W[\xb1\xbf\xec\xae?'
p231
tp232
Rp233
F0.001
F0.951111111111111
tp234
tp235
Rp236
ag1
(g2
g3
(g4
g5
(g9
S'\xbak\t\xf9\xa0\xe7\x04@'
p237
tp238
Rp239
F0.1
F0.9506726457399103
tp240
tp241
Rp242
ag1
(g2
g3
(g4
g227
F0.01
F0.9506726457399103
tp243
tp244
Rp245
ag1
(g2
g3
(g4
g5
(g9
S'`\xe5\xd0"\xdb\xf9\xf2?'
p246
tp247
Rp248
F0.01
F0.9502262443438915
tp249
tp250
Rp251
ag1
(g2
g3
(g4
g5
(g9
S'\xe9\xd9\xac\xfa\\m\r@'
p252
tp253
Rp254
F0.1
F0.9502262443438915
tp255
tp256
Rp257
ag1
(g2
g3
(g4
g5
(g9
S'\xbd\xc1\x17&S\x05\xdb?'
p258
tp259
Rp260
F0.1
F0.95
tp261
tp262
Rp263
ag1
(g2
g3
(g4
g5
(g9
S'\xc4B\xadi\xde\xf1\x0c@'
p264
tp265
Rp266
F0.1
F0.949771689497717
tp267
tp268
Rp269
ag1
(g2
g3
(g4
g5
(g9
S'm\xc5\xfe\xb2{\xf2\xec?'
p270
tp271
Rp272
F0.01
F0.9495798319327732
tp273
tp274
Rp275
ag1
(g2
g3
(g4
g5
(g9
S'\xa9\x13\xd0D\xd8\xf0\xf3?'
p276
tp277
Rp278
F0.1
F0.9495798319327732
tp279
tp280
Rp281
ag1
(g2
g3
(g4
g5
(g9
S'\x89c]\xdcF\x83\x06@'
p282
tp283
Rp284
F0.001
F0.9495798319327732
tp285
tp286
Rp287
ag1
(g2
g3
(g4
g5
(g9
S'J\x0c\x02+\x87\x96\r@'
p288
tp289
Rp290
F0.01
F0.9495798319327732
tp291
tp292
Rp293
ag1
(g2
g3
(g4
g5
(g9
S'^)\xcb\x10\xc7\xba\xd0?'
p294
tp295
Rp296
F0.01
F0.9493087557603687
tp297
tp298
Rp299
ag1
(g2
g3
(g4
g5
(g9
S'\xd0\xd5V\xec/\xbb\xe9?'
p300
tp301
Rp302
F0.01
F0.9493087557603687
tp303
tp304
Rp305
ag1
(g2
g3
(g4
g5
(g9
S'j\xbct\x93\x18\x04\xd2?'
p306
tp307
Rp308
F0.1
F0.9491525423728815
tp309
tp310
Rp311
ag1
(g2
g3
(g4
g5
(g9
S'\xe4\xf2\x1f\xd2o_\xfa?'
p312
tp313
Rp314
F0.001
F0.9491525423728814
tp315
tp316
Rp317
ag1
(g2
g3
(g4
g5
(g9
S'\x8aA`\xe5\xd0"\x03@'
p318
tp319
Rp320
F0.1
F0.9491525423728814
tp321
tp322
Rp323
ag1
(g2
g3
(g4
g5
(g9
S'\xd0\xd5V\xec/;\x0e@'
p324
tp325
Rp326
F0.001
F0.9491525423728814
tp327
tp328
Rp329
ag1
(g2
g3
(g4
g5
(g9
S'\xcf\xf7S\xe3\xa5\x9b\xb4?'
p330
tp331
Rp332
F0.1
F0.9491525423728813
tp333
tp334
Rp335
ag1
(g2
g3
(g4
g5
(g9
S'\rq\xac\x8b\xdb\xe8\r@'
p336
tp337
Rp338
F0.01
F0.9488372093023255
tp339
tp340
Rp341
ag1
(g2
g3
(g4
g5
(g9
S'\xe6\xae%\xe4\x83\x9e\xf3?'
p342
tp343
Rp344
F0.1
F0.9486166007905139
tp345
tp346
Rp347
ag1
(g2
g3
(g4
g5
(g9
S'#J{\x83/L\xf3?'
p348
tp349
Rp350
F0.001
F0.9486166007905138
tp351
tp352
Rp353
ag1
(g2
g3
(g4
g5
(g9
S'\xd3o_\x07\xce\x19\x04@'
p354
tp355
Rp356
F0.001
F0.948356807511737
tp357
tp358
Rp359
ag1
(g2
g3
(g4
g5
(g9
S'\xd2\x91\\\xfeCz\x07@'
p360
tp361
Rp362
F0.001
F0.948356807511737
tp363
tp364
Rp365
ag1
(g2
g3
(g4
g5
(g9
S'}\xd0\xb3Y\xf59\x05@'
p366
tp367
Rp368
F0.1
F0.9482758620689655
tp369
tp370
Rp371
ag1
(g2
g3
(g4
g5
(g9
S'\x16\xfb\xcb\xee\xc9\xc3\xf8?'
p372
tp373
Rp374
F0.01
F0.9482758620689654
tp375
tp376
Rp377
ag1
(g2
g3
(g4
g5
(g9
S'\x1b\x9e^)\xcb\x10\x05@'
p378
tp379
Rp380
F0.001
F0.9478672985781991
tp381
tp382
Rp383
ag1
(g2
g3
(g4
g5
(g9
S'\xb3\xeas\xb5\x15\xfb\xfb?'
p384
tp385
Rp386
F0.001
F0.9478260869565217
tp387
tp388
Rp389
ag1
(g2
g3
(g4
g5
(g9
S'\xf7\x06_\x98L\x95\x04@'
p390
tp391
Rp392
F0.01
F0.9478260869565217
tp393
tp394
Rp395
ag1
(g2
g3
(g4
g5
(g9
S'\x94\x18\x04V\x0e-\x0b@'
p396
tp397
Rp398
F0.1
F0.9477911646586346
tp399
tp400
Rp401
ag1
(g2
g3
(g4
g5
(g9
S'a2U0*\xa9\xeb?'
p402
tp403
Rp404
F0.1
F0.9473684210526316
tp405
tp406
Rp407
ag1
(g2
g3
(g4
g5
(g9
S'X9\xb4\xc8v\xbe\x04@'
p408
tp409
Rp410
F0.001
F0.9473684210526315
tp411
tp412
Rp413
ag1
(g2
g3
(g4
g179
F0.001
F0.9469387755102041
tp414
tp415
Rp416
ag1
(g2
g3
(g4
g5
(g9
S'>yX\xa85M\x0c@'
p417
tp418
Rp419
F0.01
F0.946938775510204
tp420
tp421
Rp422
ag1
(g2
g3
(g4
g5
(g9
S'\x8euq\x1b\r\xe0\xd5?'
p423
tp424
Rp425
F0.1
F0.9469026548672567
tp426
tp427
Rp428
ag1
(g2
g3
(g4
g302
F0.1
F0.9469026548672567
tp429
tp430
Rp431
ag1
(g2
g3
(g4
g5
(g9
S'\xdbh\x00o\x81\x04\xeb?'
p432
tp433
Rp434
F0.1
F0.9469026548672567
tp435
tp436
Rp437
ag1
(g2
g3
(g4
g5
(g9
S'\xaf\xb6b\x7f\xd9=\x00@'
p438
tp439
Rp440
F0.1
F0.9465020576131686
tp441
tp442
Rp443
ag1
(g2
g3
(g4
g5
(g9
S'\x1b\xc0[ Aq\x08@'
p444
tp445
Rp446
F0.001
F0.9465020576131686
tp447
tp448
Rp449
ag1
(g2
g3
(g4
g5
(g9
S'd\xcc]K\xc8\x07\x06@'
p450
tp451
Rp452
F0.001
F0.9464285714285714
tp453
tp454
Rp455
ag1
(g2
g3
(g4
g284
F0.01
F0.9464285714285714
tp456
tp457
Rp458
ag1
(g2
g3
(g4
g5
(g9
S'\x02\xbc\x05\x12\x14?\t@'
p459
tp460
Rp461
F0.001
F0.9464285714285714
tp462
tp463
Rp464
ag1
(g2
g3
(g4
g5
(g9
S'K\xea\x044\x116\n@'
p465
tp466
Rp467
F0.01
F0.9460580912863071
tp468
tp469
Rp470
ag1
(g2
g3
(g4
g5
(g9
S';p\xce\x88\xd2\xde\xf5?'
p471
tp472
Rp473
F0.1
F0.946058091286307
tp474
tp475
Rp476
ag1
(g2
g3
(g4
g446
F0.1
F0.9459459459459459
tp477
tp478
Rp479
ag1
(g2
g3
(g4
g5
(g9
S'\xa6\x9b\xc4 \xb0r\xd8?'
p480
tp481
Rp482
F0.001
F0.9456066945606695
tp483
tp484
Rp485
ag1
(g2
g3
(g4
g5
(g9
S'M\xa6\nF%u\x03@'
p486
tp487
Rp488
F0.001
F0.9456066945606695
tp489
tp490
Rp491
ag1
(g2
g3
(g4
g5
(g9
S'\x03\x9a\x08\x1b\x9e\xde\x05@'
p492
tp493
Rp494
F0.001
F0.9456066945606695
tp495
tp496
Rp497
ag1
(g2
g3
(g4
g128
F0.001
F0.9456066945606694
tp498
tp499
Rp500
ag1
(g2
g3
(g4
g5
(g9
S'\xf3\x8eSt$\x97\xed?'
p501
tp502
Rp503
F0.001
F0.9456066945606694
tp504
tp505
Rp506
ag1
(g2
g3
(g4
g419
F0.1
F0.9456066945606694
tp507
tp508
Rp509
ag1
(g2
g3
(g4
g5
(g9
S'\xffC\xfa\xed\xeb\xc0\xb9?'
p510
tp511
Rp512
F0.01
F0.9454545454545454
tp513
tp514
Rp515
ag1
(g2
g3
(g4
g5
(g9
S'o\xa3\x01\xbc\x05\x12\x0e@'
p516
tp517
Rp518
F0.001
F0.9452736318407959
tp519
tp520
Rp521
ag1
(g2
g3
(g4
g410
F0.1
F0.9451476793248946
tp522
tp523
Rp524
ag1
(g2
g3
(g4
g5
(g9
S'\xa5,C\x1c\xeb\xe2\xce?'
p525
tp526
Rp527
F0.001
F0.9451476793248945
tp528
tp529
Rp530
ag1
(g2
g3
(g4
g5
(g9
S'3\xc4\xb1.n\xa3\x07@'
p531
tp532
Rp533
F0.1
F0.9451476793248945
tp534
tp535
Rp536
ag1
(g2
g3
(g4
g5
(g9
S'\xb5\xa6y\xc7):\xf5?'
p537
tp538
Rp539
F0.01
F0.944954128440367
tp540
tp541
Rp542
ag1
(g2
g3
(g4
g50
F0.001
F0.944954128440367
tp543
tp544
Rp545
ag1
(g2
g3
(g4
g185
F0.001
F0.9446808510638298
tp546
tp547
Rp548
ag1
(g2
g3
(g4
g5
(g9
S'&u\x02\x9a\x08\x1b\r@'
p549
tp550
Rp551
F0.001
F0.9446808510638298
tp552
tp553
Rp554
ag1
(g2
g3
(g4
g5
(g9
S'\x19\x04V\x0e-2\x0f@'
p555
tp556
Rp557
F0.001
F0.9446808510638298
tp558
tp559
Rp560
ag1
(g2
g3
(g4
g5
(g9
S'\xa0\x89\xb0\xe1\xe9\x95\xe4?'
p561
tp562
Rp563
F0.1
F0.9444444444444445
tp564
tp565
Rp566
ag1
(g2
g3
(g4
g296
F0.001
F0.9444444444444444
tp567
tp568
Rp569
ag1
(g2
g3
(g4
g5
(g9
S'\x82\xe2\xc7\x98\xbb\x96\xd4?'
p570
tp571
Rp572
F0.1
F0.944206008583691
tp573
tp574
Rp575
ag1
(g2
g3
(g4
g5
(g9
S'G\x03x\x0b$(\xf7?'
p576
tp577
Rp578
F0.01
F0.944206008583691
tp579
tp580
Rp581
ag1
(g2
g3
(g4
g5
(g9
S'\x0eO\xaf\x94e\x88\n@'
p582
tp583
Rp584
F0.001
F0.944206008583691
tp585
tp586
Rp587
ag1
(g2
g3
(g4
g5
(g9
S'\xb8\xaf\x03\xe7\x8c\xa8\x0b@'
p588
tp589
Rp590
F0.01
F0.944206008583691
tp591
tp592
Rp593
ag1
(g2
g3
(g4
g5
(g9
S'\xa1\x89\xb0\xe1\xe9\x15\t@'
p594
tp595
Rp596
F0.001
F0.9441624365482234
tp597
tp598
Rp599
ag1
(g2
g3
(g4
g5
(g9
S'|\xf2\xb0Pk\x9a\x08@'
p600
tp601
Rp602
F0.01
F0.944
tp603
tp604
Rp605
ag1
(g2
g3
(g4
g14
F0.1
F0.9439252336448598
tp606
tp607
Rp608
ag1
(g2
g3
(g4
g5
(g9
S'&S\x05\xa3\x92:\xe5?'
p609
tp610
Rp611
F0.01
F0.9437229437229439
tp612
tp613
Rp614
ag1
(g2
g3
(g4
g344
F0.01
F0.9437229437229439
tp615
tp616
Rp617
ag1
(g2
g3
(g4
g5
(g9
S'\x85Z\xd3\xbc\xe3\x14\xf0?'
p618
tp619
Rp620
F0.001
F0.9437229437229437
tp621
tp622
Rp623
ag1
(g2
g3
(g4
g167
F0.001
F0.9437229437229437
tp624
tp625
Rp626
ag1
(g2
g3
(g4
g425
F0.001
F0.9435483870967741
tp627
tp628
Rp629
ag1
(g2
g3
(g4
g248
F0.1
F0.943231441048035
tp630
tp631
Rp632
ag1
(g2
g3
(g4
g5
(g9
S'lxz\xa5,C\xf4?'
p633
tp634
Rp635
F0.1
F0.943231441048035
tp636
tp637
Rp638
ag1
(g2
g3
(g4
g5
(g9
S'\x95\xf6\x06_\x98\xcc\x07@'
p639
tp640
Rp641
F0.01
F0.943231441048035
tp642
tp643
Rp644
ag1
(g2
g3
(g4
g362
F0.1
F0.9428571428571428
tp645
tp646
Rp647
ag1
(g2
g3
(g4
g5
(g9
S'X[\xb1\xbf\xec\x1e\x08@'
p648
tp649
Rp650
F0.01
F0.9428571428571428
tp651
tp652
Rp653
ag1
(g2
g3
(g4
g527
F0.01
F0.9427312775330396
tp654
tp655
Rp656
ag1
(g2
g3
(g4
g641
F0.1
F0.9427312775330396
tp657
tp658
Rp659
ag1
(g2
g3
(g4
g5
(g9
S'\xddF\x03x\x0b$\x0c@'
p660
tp661
Rp662
F0.01
F0.9427312775330396
tp663
tp664
Rp665
ag1
(g2
g3
(g4
g5
(g9
S'(\x0f\x0b\xb5\xa6\xf9\x02@'
p666
tp667
Rp668
F0.01
F0.9426229508196722
tp669
tp670
Rp671
ag1
(g2
g3
(g4
g620
F0.01
F0.9426229508196721
tp672
tp673
Rp674
ag1
(g2
g3
(g4
g56
F0.01
F0.9426229508196721
tp675
tp676
Rp677
ag1
(g2
g3
(g4
g5
(g9
S'>yX\xa85\xcd\xe7?'
p678
tp679
Rp680
F0.001
F0.9422222222222223
tp681
tp682
Rp683
ag1
(g2
g3
(g4
g5
(g9
S'\xde\x02\t\x8a\x1fc\x05@'
p684
tp685
Rp686
F0.001
F0.9422222222222223
tp687
tp688
Rp689
ag1
(g2
g3
(g4
g5
(g9
S'\xc5 \xb0rh\x91\t@'
p690
tp691
Rp692
F0.01
F0.9422222222222223
tp693
tp694
Rp695
ag1
(g2
g3
(g4
g5
(g9
S"'1\x08\xac\x1cZ\x06@"
p696
tp697
Rp698
F0.001
F0.9422222222222222
tp699
tp700
Rp701
ag1
(g2
g3
(g4
g5
(g9
S'\x01M\x84\rO\xaf\x94?'
p702
tp703
Rp704
F0.001
F0.9421487603305785
tp705
tp706
Rp707
ag1
(g2
g3
(g4
g404
F0.001
F0.9421487603305785
tp708
tp709
Rp710
ag1
(g2
g3
(g4
g392
F0.1
F0.941747572815534
tp711
tp712
Rp713
ag1
(g2
g3
(g4
g134
F0.1
F0.9417040358744394
tp714
tp715
Rp716
ag1
(g2
g3
(g4
g5
(g9
S'\xae\xd8_vO\x9e\x03@'
p717
tp718
Rp719
F0.1
F0.9417040358744394
tp720
tp721
Rp722
ag1
(g2
g3
(g4
g266
F0.01
F0.9417040358744394
tp723
tp724
Rp725
ag1
(g2
g3
(g4
g5
(g9
S'\xdch\x00o\x81\x84\x0f@'
p726
tp727
Rp728
F0.001
F0.9417040358744394
tp729
tp730
Rp731
ag1
(g2
g3
(g4
g5
(g9
S"'S\x05\xa3\x92\xba\t@"
p732
tp733
Rp734
F0.01
F0.9416666666666667
tp735
tp736
Rp737
ag1
(g2
g3
(g4
g5
(g9
S'v\xe0\x9c\x11\xa5\xbd\xc9?'
p738
tp739
Rp740
F0.1
F0.9411764705882353
tp741
tp742
Rp743
ag1
(g2
g3
(g4
g5
(g9
S'\x02\x9a\x08\x1b\x9e^\xe1?'
p744
tp745
Rp746
F0.1
F0.9411764705882353
tp747
tp748
Rp749
ag1
(g2
g3
(g4
g5
(g9
S'-!\x1f\xf4lV\xfb?'
p750
tp751
Rp752
F0.01
F0.9411764705882353
tp753
tp754
Rp755
ag1
(g2
g3
(g4
g5
(g9
S'Q\xda\x1b|a2\xff?'
p756
tp757
Rp758
F0.1
F0.9411764705882353
tp759
tp760
Rp761
ag1
(g2
g3
(g4
g5
(g9
S'\xdf\xe0\x0b\x93\xa9\x02\x02@'
p762
tp763
Rp764
F0.01
F0.9411764705882353
tp765
tp766
Rp767
ag1
(g2
g3
(g4
g410
F0.01
F0.9411764705882353
tp768
tp769
Rp770
ag1
(g2
g3
(g4
g482
F0.01
F0.940677966101695
tp771
tp772
Rp773
ag1
(g2
g3
(g4
g668
F0.001
F0.9406392694063928
tp774
tp775
Rp776
ag1
(g2
g3
(g4
g635
F0.001
F0.9406392694063926
tp777
tp778
Rp779
ag1
(g2
g3
(g4
g5
(g9
S'Y\x17\xb7\xd1\x00^\x01@'
p780
tp781
Rp782
F0.001
F0.9406392694063926
tp783
tp784
Rp785
ag1
(g2
g3
(g4
g5
(g9
S'\x1c|a2U\xb0\x01@'
p786
tp787
Rp788
F0.001
F0.9406392694063926
tp789
tp790
Rp791
ag1
(g2
g3
(g4
g362
F0.01
F0.9406392694063926
tp792
tp793
Rp794
ag1
(g2
g3
(g4
g5
(g9
S'?W[\xb1\xbf\xec\x08@'
p795
tp796
Rp797
F0.01
F0.9406392694063926
tp798
tp799
Rp800
ag1
(g2
g3
(g4
g5
(g9
S'\xac\x1cZd;_\n@'
p801
tp802
Rp803
F0.01
F0.9405940594059405
tp804
tp805
Rp806
ag1
(g2
g3
(g4
g116
F0.1
F0.9401709401709402
tp807
tp808
Rp809
ag1
(g2
g3
(g4
g551
F0.1
F0.9401709401709402
tp810
tp811
Rp812
ag1
(g2
g3
(g4
g461
F0.1
F0.94017094017094
tp813
tp814
Rp815
ag1
(g2
g3
(g4
g233
F0.1
F0.9400921658986177
tp816
tp817
Rp818
ag1
(g2
g3
(g4
g5
(g9
S'\x93:\x01M\x84\x8d\x0e@'
p819
tp820
Rp821
F0.01
F0.9400921658986175
tp822
tp823
Rp824
ag1
(g2
g3
(g4
g74
F0.001
F0.9400000000000001
tp825
tp826
Rp827
ag1
(g2
g3
(g4
g5
(g9
S'.n\xa3\x01\xbc\x05\xc2?'
p828
tp829
Rp830
F0.01
F0.9397590361445782
tp831
tp832
Rp833
ag1
(g2
g3
(g4
g5
(g9
S'J\x0c\x02+\x87\x16\xe9?'
p834
tp835
Rp836
F0.01
F0.9396551724137931
tp837
tp838
Rp839
ag1
(g2
g3
(g4
g5
(g9
S'yX\xa85\xcd;\xee?'
p840
tp841
Rp842
F0.1
F0.9396551724137931
tp843
tp844
Rp845
ag1
(g2
g3
(g4
g539
F0.001
F0.9396551724137931
tp846
tp847
Rp848
ag1
(g2
g3
(g4
g5
(g9
S'EGr\xf9\x0f\xe9\xfd?'
p849
tp850
Rp851
F0.1
F0.9396551724137931
tp852
tp853
Rp854
ag1
(g2
g3
(g4
g5
(g9
S'M\x84\rO\xaf\x14\x00@'
p855
tp856
Rp857
F0.001
F0.9396551724137931
tp858
tp859
Rp860
ag1
(g2
g3
(g4
g5
(g9
S'\xf5lV}\xae\xb6\x0e@'
p861
tp862
Rp863
F0.1
F0.939655172413793
tp864
tp865
Rp866
ag1
(g2
g3
(g4
g5
(g9
S'V\x9f\xab\xad\xd8\xdf\x0e@'
p867
tp868
Rp869
F0.001
F0.939655172413793
tp870
tp871
Rp872
ag1
(g2
g3
(g4
g5
(g9
S'\x94\xf6\x06_\x98L\xe3?'
p873
tp874
Rp875
F0.1
F0.9395348837209303
tp876
tp877
Rp878
ag1
(g2
g3
(g4
g5
(g9
S'\x17\xb7\xd1\x00\xde\x02\xf2?'
p879
tp880
Rp881
F0.1
F0.9395348837209302
tp882
tp883
Rp884
ag1
(g2
g3
(g4
g5
(g9
S'e\xaa`TR\xa7\x02@'
p885
tp886
Rp887
F0.01
F0.9395348837209302
tp888
tp889
Rp890
ag1
(g2
g3
(g4
g5
(g9
S'\xd1\xb3Y\xf5\xb9\xda\n@'
p891
tp892
Rp893
F0.1
F0.9392712550607287
tp894
tp895
Rp896
ag1
(g2
g3
(g4
g5
(g9
S'\xd5\xe7j+\xf6\x97\xdd?'
p897
tp898
Rp899
F0.01
F0.9391304347826088
tp900
tp901
Rp902
ag1
(g2
g3
(g4
g5
(g9
S'\x01\xde\x02\t\x8a\x9f\x0c@'
p903
tp904
Rp905
F0.001
F0.9391304347826088
tp906
tp907
Rp908
ag1
(g2
g3
(g4
g122
F0.1
F0.9391304347826087
tp909
tp910
Rp911
ag1
(g2
g3
(g4
g185
F0.1
F0.9391304347826087
tp912
tp913
Rp914
ag1
(g2
g3
(g4
g5
(g9
S'\x0e-\xb2\x9d\xef\xa7\xe2?'
p915
tp916
Rp917
F0.01
F0.9389671361502349
tp918
tp919
Rp920
ag1
(g2
g3
(g4
g38
F0.1
F0.9389671361502347
tp921
tp922
Rp923
ag1
(g2
g3
(g4
g5
(g9
S'\xbbI\x0c\x02+\x87\x01@'
p924
tp925
Rp926
F0.001
F0.9389671361502347
tp927
tp928
Rp929
ag1
(g2
g3
(g4
g452
F0.1
F0.9389312977099237
tp930
tp931
Rp932
ag1
(g2
g3
(g4
g692
F0.001
F0.9387755102040817
tp933
tp934
Rp935
ag1
(g2
g3
(g4
g5
(g9
S'\xa0\xab\xad\xd8_v\x0c@'
p936
tp937
Rp938
F0.1
F0.9387755102040817
tp939
tp940
Rp941
ag1
(g2
g3
(g4
g680
F0.01
F0.9387755102040816
tp942
tp943
Rp944
ag1
(g2
g3
(g4
g467
F0.1
F0.9387755102040816
tp945
tp946
Rp947
ag1
(g2
g3
(g4
g116
F0.001
F0.9385964912280702
tp948
tp949
Rp950
ag1
(g2
g3
(g4
g386
F0.01
F0.9383886255924171
tp951
tp952
Rp953
ag1
(g2
g3
(g4
g5
(g9
S'\xf8\xe4a\xa1\xd64\x01@'
p954
tp955
Rp956
F0.1
F0.9383886255924171
tp957
tp958
Rp959
ag1
(g2
g3
(g4
g578
F0.1
F0.9382716049382717
tp960
tp961
Rp962
ag1
(g2
g3
(g4
g5
(g9
S'\xc4B\xadi\xdeq\xe8?'
p963
tp964
Rp965
F0.001
F0.9382716049382716
tp966
tp967
Rp968
ag1
(g2
g3
(g4
g764
F0.001
F0.9382716049382716
tp969
tp970
Rp971
ag1
(g2
g3
(g4
g5
(g9
S'q=\n\xd7\xa3\xf0\x03@'
p972
tp973
Rp974
F0.1
F0.9382716049382716
tp975
tp976
Rp977
ag1
(g2
g3
(g4
g5
(g9
S'F\x94\xf6\x06_\x98\xc4?'
p978
tp979
Rp980
F0.001
F0.9380530973451328
tp981
tp982
Rp983
ag1
(g2
g3
(g4
g5
(g9
S'\x8d\x06\xf0\x16HP\xcc?'
p984
tp985
Rp986
F0.01
F0.9380530973451328
tp987
tp988
Rp989
ag1
(g2
g3
(g4
g881
F0.001
F0.9380530973451328
tp990
tp991
Rp992
ag1
(g2
g3
(g4
g5
(g9
S'5\x80\xb7@\x82\xe2\x00@'
p993
tp994
Rp995
F0.1
F0.9380530973451328
tp996
tp997
Rp998
ag1
(g2
g3
(g4
g5
(g9
S'\xa2E\xb6\xf3\xfdT\x02@'
p999
tp1000
Rp1001
F0.1
F0.9380530973451328
tp1002
tp1003
Rp1004
ag1
(g2
g3
(g4
g101
F0.1
F0.9380530973451328
tp1005
tp1006
Rp1007
ag1
(g2
g3
(g4
g5
(g9
S'\xe7\xfb\xa9\xf1\xd2M\xec?'
p1008
tp1009
Rp1010
F0.001
F0.937799043062201
tp1011
tp1012
Rp1013
ag1
(g2
g3
(g4
g5
(g9
S'\x0b$(~\x8c\xb9\xf0?'
p1014
tp1015
Rp1016
F0.1
F0.9377593360995851
tp1017
tp1018
Rp1019
ag1
(g2
g3
(g4
g5
(g9
S'vO\x1e\x16jM\xfc?'
p1020
tp1021
Rp1022
F0.01
F0.9375
tp1023
tp1024
Rp1025
ag1
(g2
g3
(g4
g5
(g9
S'\xc7\xdc\xb5\x84|\xd0\x02@'
p1026
tp1027
Rp1028
F0.1
F0.9375
tp1029
tp1030
Rp1031
ag1
(g2
g3
(g4
g686
F0.1
F0.9375
tp1032
tp1033
Rp1034
ag1
(g2
g3
(g4
g5
(g9
S'd\xeeZB>h\t@'
p1035
tp1036
Rp1037
F0.1
F0.9375
tp1038
tp1039
Rp1040
ag1
(g2
g3
(g4
g5
(g9
S'\x9f\xcd\xaa\xcf\xd5\xd6\x0f@'
p1041
tp1042
Rp1043
F0.1
F0.9374999999999999
tp1044
tp1045
Rp1046
ag1
(g2
g3
(g4
g167
F0.01
F0.9372384937238494
tp1047
tp1048
Rp1049
ag1
(g2
g3
(g4
g782
F0.01
F0.9372384937238494
tp1050
tp1051
Rp1052
ag1
(g2
g3
(g4
g5
(g9
S'\x1a\xc0[ A\xf1\xe3?'
p1053
tp1054
Rp1055
F0.01
F0.9371980676328503
tp1056
tp1057
Rp1058
ag1
(g2
g3
(g4
g857
F0.01
F0.9371980676328502
tp1059
tp1060
Rp1061
ag1
(g2
g3
(g4
g5
(g9
S'.\x90\xa0\xf81\xe6\xbe?'
p1062
tp1063
Rp1064
F0.001
F0.937007874015748
tp1065
tp1066
Rp1067
ag1
(g2
g3
(g4
g5
(g9
S'\x10\xe9\xb7\xaf\x03g\x00@'
p1068
tp1069
Rp1070
F0.01
F0.9370078740157479
tp1071
tp1072
Rp1073
ag1
(g2
g3
(g4
g1028
F0.001
F0.9369369369369369
tp1074
tp1075
Rp1076
ag1
(g2
g3
(g4
g488
F0.1
F0.9369369369369369
tp1077
tp1078
Rp1079
ag1
(g2
g3
(g4
g758
F0.001
F0.9369369369369368
tp1080
tp1081
Rp1082
ag1
(g2
g3
(g4
g5
(g9
S'U\x9f\xab\xad\xd8_\xea?'
p1083
tp1084
Rp1085
F0.01
F0.9367088607594938
tp1086
tp1087
Rp1088
ag1
(g2
g3
(g4
g5
(g9
S'\xe9\xb7\xaf\x03\xe7\x0c\n@'
p1089
tp1090
Rp1091
F0.001
F0.9367088607594938
tp1092
tp1093
Rp1094
ag1
(g2
g3
(g4
g290
F0.001
F0.9367088607594938
tp1095
tp1096
Rp1097
ag1
(g2
g3
(g4
g302
F0.001
F0.9367088607594937
tp1098
tp1099
Rp1100
ag1
(g2
g3
(g4
g503
F0.1
F0.9367088607594937
tp1101
tp1102
Rp1103
ag1
(g2
g3
(g4
g503
F0.01
F0.9367088607594937
tp1104
tp1105
Rp1106
ag1
(g2
g3
(g4
g146
F0.001
F0.9367088607594937
tp1107
tp1108
Rp1109
ag1
(g2
g3
(g4
g326
F0.1
F0.9367088607594937
tp1110
tp1111
Rp1112
ag1
(g2
g3
(g4
g434
F0.001
F0.9365079365079365
tp1113
tp1114
Rp1115
ag1
(g2
g3
(g4
g86
F0.001
F0.9365079365079365
tp1116
tp1117
Rp1118
ag1
(g2
g3
(g4
g590
F0.1
F0.9365079365079365
tp1119
tp1120
Rp1121
ag1
(g2
g3
(g4
g1055
F0.1
F0.9363636363636364
tp1122
tp1123
Rp1124
ag1
(g2
g3
(g4
g5
(g9
S'\x96\xb2\x0cq\xac\x0b\x01@'
p1125
tp1126
Rp1127
F0.001
F0.9363636363636364
tp1128
tp1129
Rp1130
ag1
(g2
g3
(g4
g974
F0.001
F0.9363636363636364
tp1131
tp1132
Rp1133
ag1
(g2
g3
(g4
g5
(g9
S'4\xa2\xb47\xf8B\x04@'
p1134
tp1135
Rp1136
F0.1
F0.9363636363636364
tp1137
tp1138
Rp1139
ag1
(g2
g3
(g4
g5
(g9
S'\x1a\xe2X\x17\xb7\xd1\x0b@'
p1140
tp1141
Rp1142
F0.1
F0.9363636363636364
tp1143
tp1144
Rp1145
ag1
(g2
g3
(g4
g5
(g9
S"TR'\xa0\x89\xb0\xf1?"
p1146
tp1147
Rp1148
F0.1
F0.9363636363636363
tp1149
tp1150
Rp1151
ag1
(g2
g3
(g4
g5
(g9
S'!\x8euq\x1b\r\xfa?'
p1152
tp1153
Rp1154
F0.1
F0.9363636363636363
tp1155
tp1156
Rp1157
ag1
(g2
g3
(g4
g197
F0.1
F0.9363636363636363
tp1158
tp1159
Rp1160
ag1
(g2
g3
(g4
g56
F0.1
F0.9361702127659575
tp1161
tp1162
Rp1163
ag1
(g2
g3
(g4
g5
(g9
S'=\x9bU\x9f\xab\xad\x0f@'
p1164
tp1165
Rp1166
F0.01
F0.9361702127659574
tp1167
tp1168
Rp1169
ag1
(g2
g3
(g4
g5
(g9
S'\x85\xebQ\xb8\x1e\x85\xef?'
p1170
tp1171
Rp1172
F0.1
F0.9357798165137615
tp1173
tp1174
Rp1175
ag1
(g2
g3
(g4
g5
(g9
S'\x08\xac\x1cZd;\xfe?'
p1176
tp1177
Rp1178
F0.01
F0.9357798165137615
tp1179
tp1180
Rp1181
ag1
(g2
g3
(g4
g5
(g9
S"\x0f-\xb2\x9d\xef'\x07@"
p1182
tp1183
Rp1184
F0.1
F0.9357798165137614
tp1185
tp1186
Rp1187
ag1
(g2
g3
(g4
g350
F0.1
F0.9356223175965666
tp1188
tp1189
Rp1190
ag1
(g2
g3
(g4
g44
F0.001
F0.9356223175965666
tp1191
tp1192
Rp1193
ag1
(g2
g3
(g4
g191
F0.001
F0.9356223175965666
tp1194
tp1195
Rp1196
ag1
(g2
g3
(g4
g869
F0.1
F0.9356223175965666
tp1197
tp1198
Rp1199
ag1
(g2
g3
(g4
g173
F0.001
F0.9356223175965664
tp1200
tp1201
Rp1202
ag1
(g2
g3
(g4
g5
(g9
S'\xde$\x06\x81\x95\xc3\x08@'
p1203
tp1204
Rp1205
F0.001
F0.9356223175965664
tp1206
tp1207
Rp1208
ag1
(g2
g3
(g4
g284
F0.1
F0.935483870967742
tp1209
tp1210
Rp1211
ag1
(g2
g3
(g4
g5
(g9
S'\xcb\x10\xc7\xba\xb8\x8d\xfe?'
p1212
tp1213
Rp1214
F0.1
F0.9354838709677419
tp1215
tp1216
Rp1217
ag1
(g2
g3
(g4
g596
F0.01
F0.935361216730038
tp1218
tp1219
Rp1220
ag1
(g2
g3
(g4
g314
F0.01
F0.9351851851851852
tp1221
tp1222
Rp1223
ag1
(g2
g3
(g4
g893
F0.01
F0.9351851851851852
tp1224
tp1225
Rp1226
ag1
(g2
g3
(g4
g5
(g9
S'z6\xab>W[\x0f@'
p1227
tp1228
Rp1229
F0.1
F0.9351851851851852
tp1230
tp1231
Rp1232
ag1
(g2
g3
(g4
g512
F0.1
F0.935064935064935
tp1233
tp1234
Rp1235
ag1
(g2
g3
(g4
g107
F0.01
F0.935064935064935
tp1236
tp1237
Rp1238
ag1
(g2
g3
(g4
g905
F0.01
F0.935064935064935
tp1239
tp1240
Rp1241
ag1
(g2
g3
(g4
g1136
F0.001
F0.934959349593496
tp1242
tp1243
Rp1244
ag1
(g2
g3
(g4
g5
(g9
S'\x9d\x80&\xc2\x86\xa7\xf2?'
p1245
tp1246
Rp1247
F0.01
F0.9349593495934959
tp1248
tp1249
Rp1250
ag1
(g2
g3
(g4
g611
F0.001
F0.9345794392523366
tp1251
tp1252
Rp1253
ag1
(g2
g3
(g4
g5
(g9
S'\xc19#J{\x83\xf6?'
p1254
tp1255
Rp1256
F0.001
F0.9345794392523364
tp1257
tp1258
Rp1259
ag1
(g2
g3
(g4
g5
(g9
S'j\xbct\x93\x18\x04\xfb?'
p1260
tp1261
Rp1262
F0.001
F0.9345794392523364
tp1263
tp1264
Rp1265
ag1
(g2
g3
(g4
g692
F0.1
F0.9345794392523364
tp1266
tp1267
Rp1268
ag1
(g2
g3
(g4
g980
F0.1
F0.9344978165938865
tp1269
tp1270
Rp1271
ag1
(g2
g3
(g4
g5
(g9
S'\xbf}\x1d8gD\xfd?'
p1272
tp1273
Rp1274
F0.001
F0.9344978165938865
tp1275
tp1276
Rp1277
ag1
(g2
g3
(g4
g197
F0.001
F0.9344978165938865
tp1278
tp1279
Rp1280
ag1
(g2
g3
(g4
g233
F0.01
F0.9344978165938864
tp1281
tp1282
Rp1283
ag1
(g2
g3
(g4
g155
F0.01
F0.9344978165938864
tp1284
tp1285
Rp1286
ag1
(g2
g3
(g4
g314
F0.1
F0.9344978165938864
tp1287
tp1288
Rp1289
ag1
(g2
g3
(g4
g5
(g9
S'\x8euq\x1b\r\xe0\xfe?'
p1290
tp1291
Rp1292
F0.01
F0.9344978165938864
tp1293
tp1294
Rp1295
ag1
(g2
g3
(g4
g1292
F0.001
F0.9344978165938864
tp1296
tp1297
Rp1298
ag1
(g2
g3
(g4
g5
(g9
S'\x88\x85Z\xd3\xbc\xe3\t@'
p1299
tp1300
Rp1301
F0.1
F0.9344978165938864
tp1302
tp1303
Rp1304
ag1
(g2
g3
(g4
g5
(g9
S'H\xbf}\x1d8g\xf0?'
p1305
tp1306
Rp1307
F0.1
F0.933920704845815
tp1308
tp1309
Rp1310
ag1
(g2
g3
(g4
g179
F0.01
F0.9339207048458149
tp1311
tp1312
Rp1313
ag1
(g2
g3
(g4
g788
F0.1
F0.9338842975206612
tp1314
tp1315
Rp1316
ag1
(g2
g3
(g4
g5
(g9
S'\xc6\xfe\xb2{\xf20\x06@'
p1317
tp1318
Rp1319
F0.1
F0.9338842975206612
tp1320
tp1321
Rp1322
ag1
(g2
g3
(g4
g797
F0.1
F0.9338842975206612
tp1323
tp1324
Rp1325
ag1
(g2
g3
(g4
g1154
F0.001
F0.9333333333333333
tp1326
tp1327
Rp1328
ag1
(g2
g3
(g4
g1214
F0.01
F0.9333333333333333
tp1329
tp1330
Rp1331
ag1
(g2
g3
(g4
g788
F0.01
F0.9333333333333333
tp1332
tp1333
Rp1334
ag1
(g2
g3
(g4
g5
(g9
S'\xf6(\\\x8f\xc2\xf5\x07@'
p1335
tp1336
Rp1337
F0.1
F0.9333333333333333
tp1338
tp1339
Rp1340
ag1
(g2
g3
(g4
g5
(g9
S'\xb9\x8d\x06\xf0\x16H\x08@'
p1341
tp1342
Rp1343
F0.1
F0.9333333333333333
tp1344
tp1345
Rp1346
ag1
(g2
g3
(g4
g14
F0.001
F0.9327731092436976
tp1347
tp1348
Rp1349
ag1
(g2
g3
(g4
g887
F0.1
F0.9327731092436976
tp1350
tp1351
Rp1352
ag1
(g2
g3
(g4
g80
F0.001
F0.9327731092436975
tp1353
tp1354
Rp1355
ag1
(g2
g3
(g4
g995
F0.001
F0.9327731092436974
tp1356
tp1357
Rp1358
ag1
(g2
g3
(g4
g899
F0.001
F0.9327354260089686
tp1359
tp1360
Rp1361
ag1
(g2
g3
(g4
g5
(g9
S'2\xe6\xae%\xe4\x83\xe6?'
p1362
tp1363
Rp1364
F0.1
F0.9327354260089686
tp1365
tp1366
Rp1367
ag1
(g2
g3
(g4
g5
(g9
S'\xad\xfa\\m\xc5\xfe\x06@'
p1368
tp1369
Rp1370
F0.01
F0.9327354260089686
tp1371
tp1372
Rp1373
ag1
(g2
g3
(g4
g101
F0.01
F0.9327354260089686
tp1374
tp1375
Rp1376
ag1
(g2
g3
(g4
g863
F0.01
F0.9327354260089686
tp1377
tp1378
Rp1379
ag1
(g2
g3
(g4
g419
F0.001
F0.9327354260089685
tp1380
tp1381
Rp1382
ag1
(g2
g3
(g4
g926
F0.1
F0.9326923076923078
tp1383
tp1384
Rp1385
ag1
(g2
g3
(g4
g746
F0.01
F0.9326923076923077
tp1386
tp1387
Rp1388
ag1
(g2
g3
(g4
g5
(g9
S'\xfe\xd4x\xe9&1\xf6?'
p1389
tp1390
Rp1391
F0.1
F0.9326923076923077
tp1392
tp1393
Rp1394
ag1
(g2
g3
(g4
g5
(g9
S'\xfc\x18s\xd7\x12\xf2\xfc?'
p1395
tp1396
Rp1397
F0.01
F0.9326923076923077
tp1398
tp1399
Rp1400
ag1
(g2
g3
(g4
g68
F0.1
F0.9322709163346614
tp1401
tp1402
Rp1403
ag1
(g2
g3
(g4
g1043
F0.01
F0.9322709163346613
tp1404
tp1405
Rp1406
ag1
(g2
g3
(g4
g1364
F0.001
F0.9322033898305085
tp1407
tp1408
Rp1409
ag1
(g2
g3
(g4
g1307
F0.01
F0.9321266968325793
tp1410
tp1411
Rp1412
ag1
(g2
g3
(g4
g875
F0.01
F0.9320388349514563
tp1413
tp1414
Rp1415
ag1
(g2
g3
(g4
g5
(g9
S'\x9c\xc4 \xb0rh\xf9?'
p1416
tp1417
Rp1418
F0.1
F0.9320388349514562
tp1419
tp1420
Rp1421
ag1
(g2
g3
(g4
g986
F0.1
F0.9317269076305222
tp1422
tp1423
Rp1424
ag1
(g2
g3
(g4
g5
(g9
S'|\xd0\xb3Y\xf5\xb9\xe0?'
p1425
tp1426
Rp1427
F0.01
F0.9316239316239316
tp1428
tp1429
Rp1430
ag1
(g2
g3
(g4
g5
(g9
S'\x88c]\xdcF\x03\xe2?'
p1431
tp1432
Rp1433
F0.1
F0.9316239316239316
tp1434
tp1435
Rp1436
ag1
(g2
g3
(g4
g1148
F0.001
F0.9316239316239316
tp1437
tp1438
Rp1439
ag1
(g2
g3
(g4
g752
F0.1
F0.9316239316239316
tp1440
tp1441
Rp1442
ag1
(g2
g3
(g4
g764
F0.1
F0.9316239316239316
tp1443
tp1444
Rp1445
ag1
(g2
g3
(g4
g62
F0.001
F0.9315068493150684
tp1446
tp1447
Rp1448
ag1
(g2
g3
(g4
g980
F0.01
F0.9310344827586208
tp1449
tp1450
Rp1451
ag1
(g2
g3
(g4
g1256
F0.1
F0.9310344827586208
tp1452
tp1453
Rp1454
ag1
(g2
g3
(g4
g440
F0.001
F0.9310344827586208
tp1455
tp1456
Rp1457
ag1
(g2
g3
(g4
g1142
F0.01
F0.9310344827586208
tp1458
tp1459
Rp1460
ag1
(g2
g3
(g4
g917
F0.1
F0.9308755760368663
tp1461
tp1462
Rp1463
ag1
(g2
g3
(g4
g122
F0.001
F0.9308755760368663
tp1464
tp1465
Rp1466
ag1
(g2
g3
(g4
g5
(g9
S'\x10\x0b\xb5\xa6y\xc7\x03@'
p1467
tp1468
Rp1469
F0.001
F0.9308755760368663
tp1470
tp1471
Rp1472
ag1
(g2
g3
(g4
g215
F0.1
F0.9308755760368663
tp1473
tp1474
Rp1475
ag1
(g2
g3
(g4
g5
(g9
S'\x00\x00\x00\x00\x00\x00\x10@'
p1476
tp1477
Rp1478
F0.001
F0.9308755760368663
tp1479
tp1480
Rp1481
ag1
(g2
g3
(g4
g32
F0.1
F0.9306122448979591
tp1482
tp1483
Rp1484
ag1
(g2
g3
(g4
g5
(g9
S'p_\x07\xce\x19Q\x07@'
p1485
tp1486
Rp1487
F0.1
F0.9304347826086957
tp1488
tp1489
Rp1490
ag1
(g2
g3
(g4
g308
F0.01
F0.9304347826086956
tp1491
tp1492
Rp1493
ag1
(g2
g3
(g4
g698
F0.01
F0.9304347826086956
tp1494
tp1495
Rp1496
ag1
(g2
g3
(g4
g1247
F0.001
F0.930232558139535
tp1497
tp1498
Rp1499
ag1
(g2
g3
(g4
g374
F0.1
F0.930232558139535
tp1500
tp1501
Rp1502
ag1
(g2
g3
(g4
g1274
F0.01
F0.930232558139535
tp1503
tp1504
Rp1505
ag1
(g2
g3
(g4
g1064
F0.1
F0.9302325581395349
tp1506
tp1507
Rp1508
ag1
(g2
g3
(g4
g956
F0.001
F0.9302325581395349
tp1509
tp1510
Rp1511
ag1
(g2
g3
(g4
g1469
F0.01
F0.9302325581395349
tp1512
tp1513
Rp1514
ag1
(g2
g3
(g4
g338
F0.001
F0.9302325581395349
tp1515
tp1516
Rp1517
ag1
(g2
g3
(g4
g5
(g9
S'\xcd\xcc\xcc\xcc\xcc\xcc\xf7?'
p1518
tp1519
Rp1520
F0.001
F0.9300411522633746
tp1521
tp1522
Rp1523
ag1
(g2
g3
(g4
g248
F0.001
F0.9298245614035089
tp1524
tp1525
Rp1526
ag1
(g2
g3
(g4
g206
F0.1
F0.9298245614035089
tp1527
tp1528
Rp1529
ag1
(g2
g3
(g4
g1136
F0.01
F0.9298245614035089
tp1530
tp1531
Rp1532
ag1
(g2
g3
(g4
g26
F0.001
F0.9298245614035088
tp1533
tp1534
Rp1535
ag1
(g2
g3
(g4
g32
F0.001
F0.9298245614035088
tp1536
tp1537
Rp1538
ag1
(g2
g3
(g4
g5
(g9
S'\x84\x9e\xcd\xaa\xcf\xd5\xf6?'
p1539
tp1540
Rp1541
F0.1
F0.9295774647887324
tp1542
tp1543
Rp1544
ag1
(g2
g3
(g4
g641
F0.001
F0.9295774647887324
tp1545
tp1546
Rp1547
ag1
(g2
g3
(g4
g1166
F0.1
F0.9295774647887324
tp1548
tp1549
Rp1550
ag1
(g2
g3
(g4
g1370
F0.001
F0.9294605809128631
tp1551
tp1552
Rp1553
ag1
(g2
g3
(g4
g338
F0.1
F0.9292929292929293
tp1554
tp1555
Rp1556
ag1
(g2
g3
(g4
g527
F0.1
F0.9292035398230089
tp1557
tp1558
Rp1559
ag1
(g2
g3
(g4
g1478
F0.1
F0.9292035398230089
tp1560
tp1561
Rp1562
ag1
(g2
g3
(g4
g254
F0.001
F0.9292035398230087
tp1563
tp1564
Rp1565
ag1
(g2
g3
(g4
g1229
F0.01
F0.9289099526066351
tp1566
tp1567
Rp1568
ag1
(g2
g3
(g4
g5
(g9
S'\xd7\xa3p=\n\xd7\xff?'
p1569
tp1570
Rp1571
F0.01
F0.928909952606635
tp1572
tp1573
Rp1574
ag1
(g2
g3
(g4
g1247
F0.1
F0.9288702928870294
tp1575
tp1576
Rp1577
ag1
(g2
g3
(g4
g5
(g9
S'\xa7W\xca2\xc4\xb1\xfa?'
p1578
tp1579
Rp1580
F0.1
F0.9288702928870294
tp1581
tp1582
Rp1583
ag1
(g2
g3
(g4
g5
(g9
S'\xebs\xb5\x15\xfbK\x03@'
p1584
tp1585
Rp1586
F0.001
F0.9288702928870294
tp1587
tp1588
Rp1589
ag1
(g2
g3
(g4
g662
F0.1
F0.9288702928870294
tp1590
tp1591
Rp1592
ag1
(g2
g3
(g4
g1427
F0.1
F0.9288702928870293
tp1593
tp1594
Rp1595
ag1
(g2
g3
(g4
g473
F0.01
F0.9288702928870293
tp1596
tp1597
Rp1598
ag1
(g2
g3
(g4
g572
F0.01
F0.9285714285714286
tp1599
tp1600
Rp1601
ag1
(g2
g3
(g4
g1205
F0.1
F0.9285714285714286
tp1602
tp1603
Rp1604
ag1
(g2
g3
(g4
g590
F0.001
F0.9285714285714286
tp1605
tp1606
Rp1607
ag1
(g2
g3
(g4
g350
F0.01
F0.9285714285714285
tp1608
tp1609
Rp1610
ag1
(g2
g3
(g4
g857
F0.1
F0.9285714285714285
tp1611
tp1612
Rp1613
ag1
(g2
g3
(g4
g956
F0.01
F0.9285714285714285
tp1614
tp1615
Rp1616
ag1
(g2
g3
(g4
g974
F0.01
F0.9285714285714285
tp1617
tp1618
Rp1619
ag1
(g2
g3
(g4
g728
F0.1
F0.9282700421940928
tp1620
tp1621
Rp1622
ag1
(g2
g3
(g4
g719
F0.001
F0.9282296650717704
tp1623
tp1624
Rp1625
ag1
(g2
g3
(g4
g5
(g9
S'\x91\xed|?5^\xf1?'
p1626
tp1627
Rp1628
F0.001
F0.927927927927928
tp1629
tp1630
Rp1631
ag1
(g2
g3
(g4
g1127
F0.01
F0.927927927927928
tp1632
tp1633
Rp1634
ag1
(g2
g3
(g4
g1172
F0.01
F0.9279279279279279
tp1635
tp1636
Rp1637
ag1
(g2
g3
(g4
g719
F0.01
F0.9279279279279279
tp1638
tp1639
Rp1640
ag1
(g2
g3
(g4
g557
F0.01
F0.9279279279279279
tp1641
tp1642
Rp1643
ag1
(g2
g3
(g4
g965
F0.1
F0.9276595744680851
tp1644
tp1645
Rp1646
ag1
(g2
g3
(g4
g398
F0.001
F0.9276595744680851
tp1647
tp1648
Rp1649
ag1
(g2
g3
(g4
g260
F0.01
F0.927536231884058
tp1650
tp1651
Rp1652
ag1
(g2
g3
(g4
g881
F0.01
F0.927536231884058
tp1653
tp1654
Rp1655
ag1
(g2
g3
(g4
g374
F0.001
F0.9272727272727272
tp1656
tp1657
Rp1658
ag1
(g2
g3
(g4
g20
F0.01
F0.9272727272727272
tp1659
tp1660
Rp1661
ag1
(g2
g3
(g4
g842
F0.01
F0.9272727272727271
tp1662
tp1663
Rp1664
ag1
(g2
g3
(g4
g1184
F0.01
F0.9272727272727271
tp1665
tp1666
Rp1667
ag1
(g2
g3
(g4
g380
F0.1
F0.9270386266094421
tp1668
tp1669
Rp1670
ag1
(g2
g3
(g4
g686
F0.01
F0.9270386266094421
tp1671
tp1672
Rp1673
ag1
(g2
g3
(g4
g227
F0.001
F0.927038626609442
tp1674
tp1675
Rp1676
ag1
(g2
g3
(g4
g1001
F0.001
F0.9270386266094419
tp1677
tp1678
Rp1679
ag1
(g2
g3
(g4
g260
F0.001
F0.926829268292683
tp1680
tp1681
Rp1682
ag1
(g2
g3
(g4
g557
F0.1
F0.926829268292683
tp1683
tp1684
Rp1685
ag1
(g2
g3
(g4
g1214
F0.001
F0.9268292682926829
tp1686
tp1687
Rp1688
ag1
(g2
g3
(g4
g5
(g9
S'o\x81\x04\xc5\x8f\xb1\n@'
p1689
tp1690
Rp1691
F0.001
F0.926605504587156
tp1692
tp1693
Rp1694
ag1
(g2
g3
(g4
g938
F0.01
F0.926605504587156
tp1695
tp1696
Rp1697
ag1
(g2
g3
(g4
g221
F0.01
F0.926605504587156
tp1698
tp1699
Rp1700
ag1
(g2
g3
(g4
g851
F0.01
F0.9266055045871558
tp1701
tp1702
Rp1703
ag1
(g2
g3
(g4
g356
F0.01
F0.9266055045871558
tp1704
tp1705
Rp1706
ag1
(g2
g3
(g4
g494
F0.01
F0.9266055045871558
tp1707
tp1708
Rp1709
ag1
(g2
g3
(g4
g155
F0.1
F0.9264069264069265
tp1710
tp1711
Rp1712
ag1
(g2
g3
(g4
g446
F0.01
F0.9264069264069265
tp1713
tp1714
Rp1715
ag1
(g2
g3
(g4
g5
(g9
S'\nh"lxz\xf7?'
p1716
tp1717
Rp1718
F0.001
F0.9264069264069263
tp1719
tp1720
Rp1721
ag1
(g2
g3
(g4
g1580
F0.001
F0.9264069264069263
tp1722
tp1723
Rp1724
ag1
(g2
g3
(g4
g602
F0.001
F0.9264069264069263
tp1725
tp1726
Rp1727
ag1
(g2
g3
(g4
g1043
F0.001
F0.9264069264069263
tp1728
tp1729
Rp1730
ag1
(g2
g3
(g4
g740
F0.01
F0.9262295081967213
tp1731
tp1732
Rp1733
ag1
(g2
g3
(g4
g482
F0.1
F0.9262295081967213
tp1734
tp1735
Rp1736
ag1
(g2
g3
(g4
g5
(g9
S'\xf2A\xcff\xd5\xe7\xf4?'
p1737
tp1738
Rp1739
F0.01
F0.9262295081967213
tp1740
tp1741
Rp1742
ag1
(g2
g3
(g4
g146
F0.1
F0.9262295081967213
tp1743
tp1744
Rp1745
ag1
(g2
g3
(g4
g1022
F0.001
F0.9262295081967213
tp1746
tp1747
Rp1748
ag1
(g2
g3
(g4
g92
F0.001
F0.925925925925926
tp1749
tp1750
Rp1751
ag1
(g2
g3
(g4
g1319
F0.001
F0.925925925925926
tp1752
tp1753
Rp1754
ag1
(g2
g3
(g4
g995
F0.01
F0.9259259259259259
tp1755
tp1756
Rp1757
ag1
(g2
g3
(g4
g452
F0.01
F0.9259259259259259
tp1758
tp1759
Rp1760
ag1
(g2
g3
(g4
g1433
F0.001
F0.925764192139738
tp1761
tp1762
Rp1763
ag1
(g2
g3
(g4
g875
F0.001
F0.925764192139738
tp1764
tp1765
Rp1766
ag1
(g2
g3
(g4
g5
(g9
S'\xa1g\xb3\xeas\xb5\x05@'
p1767
tp1768
Rp1769
F0.001
F0.925764192139738
tp1770
tp1771
Rp1772
ag1
(g2
g3
(g4
g1205
F0.01
F0.925764192139738
tp1773
tp1774
Rp1775
ag1
(g2
g3
(g4
g290
F0.1
F0.9257641921397379
tp1776
tp1777
Rp1778
ag1
(g2
g3
(g4
g518
F0.1
F0.9257641921397379
tp1779
tp1780
Rp1781
ag1
(g2
g3
(g4
g1337
F0.01
F0.9256198347107439
tp1782
tp1783
Rp1784
ag1
(g2
g3
(g4
g1586
F0.1
F0.9256198347107438
tp1785
tp1786
Rp1787
ag1
(g2
g3
(g4
g368
F0.01
F0.9256198347107438
tp1788
tp1789
Rp1790
ag1
(g2
g3
(g4
g380
F0.01
F0.9254901960784313
tp1791
tp1792
Rp1793
ag1
(g2
g3
(g4
g392
F0.001
F0.9253731343283583
tp1794
tp1795
Rp1796
ag1
(g2
g3
(g4
g533
F0.01
F0.9253731343283582
tp1797
tp1798
Rp1799
ag1
(g2
g3
(g4
g86
F0.01
F0.9252336448598131
tp1800
tp1801
Rp1802
ag1
(g2
g3
(g4
g254
F0.01
F0.9251101321585904
tp1803
tp1804
Rp1805
ag1
(g2
g3
(g4
g584
F0.01
F0.925
tp1806
tp1807
Rp1808
ag1
(g2
g3
(g4
g1016
F0.001
F0.9249999999999999
tp1809
tp1810
Rp1811
ag1
(g2
g3
(g4
g344
F0.001
F0.9249999999999999
tp1812
tp1813
Rp1814
ag1
(g2
g3
(g4
g368
F0.001
F0.9249999999999999
tp1815
tp1816
Rp1817
ag1
(g2
g3
(g4
g134
F0.01
F0.924901185770751
tp1818
tp1819
Rp1820
ag1
(g2
g3
(g4
g1085
F0.001
F0.9245283018867925
tp1821
tp1822
Rp1823
ag1
(g2
g3
(g4
g1427
F0.001
F0.9244444444444444
tp1824
tp1825
Rp1826
ag1
(g2
g3
(g4
g836
F0.001
F0.9243697478991597
tp1827
tp1828
Rp1829
ag1
(g2
g3
(g4
g161
F0.1
F0.9243697478991597
tp1830
tp1831
Rp1832
ag1
(g2
g3
(g4
g836
F0.1
F0.9238095238095239
tp1833
tp1834
Rp1835
ag1
(g2
g3
(g4
g1391
F0.001
F0.9238095238095239
tp1836
tp1837
Rp1838
ag1
(g2
g3
(g4
g1580
F0.01
F0.9238095238095239
tp1839
tp1840
Rp1841
ag1
(g2
g3
(g4
g278
F0.01
F0.9237668161434978
tp1842
tp1843
Rp1844
ag1
(g2
g3
(g4
g1127
F0.1
F0.9237668161434978
tp1845
tp1846
Rp1847
ag1
(g2
g3
(g4
g221
F0.1
F0.9237668161434978
tp1848
tp1849
Rp1850
ag1
(g2
g3
(g4
g5
(g9
S'2\x08\xac\x1cZd\x0e@'
p1851
tp1852
Rp1853
F0.1
F0.9237668161434978
tp1854
tp1855
Rp1856
ag1
(g2
g3
(g4
g758
F0.01
F0.9237668161434976
tp1857
tp1858
Rp1859
ag1
(g2
g3
(g4
g473
F0.001
F0.923728813559322
tp1860
tp1861
Rp1862
ag1
(g2
g3
(g4
g584
F0.1
F0.923728813559322
tp1863
tp1864
Rp1865
ag1
(g2
g3
(g4
g5
(g9
S'\xc9T\xc1\xa8\xa4N\xdc?'
p1866
tp1867
Rp1868
F0.001
F0.9237288135593219
tp1869
tp1870
Rp1871
ag1
(g2
g3
(g4
g704
F0.1
F0.9230769230769231
tp1872
tp1873
Rp1874
ag1
(g2
g3
(g4
g704
F0.01
F0.9230769230769231
tp1875
tp1876
Rp1877
ag1
(g2
g3
(g4
g830
F0.001
F0.9230769230769231
tp1878
tp1879
Rp1880
ag1
(g2
g3
(g4
g740
F0.001
F0.9230769230769231
tp1881
tp1882
Rp1883
ag1
(g2
g3
(g4
g128
F0.1
F0.9230769230769231
tp1884
tp1885
Rp1886
ag1
(g2
g3
(g4
g38
F0.001
F0.9230769230769231
tp1887
tp1888
Rp1889
ag1
(g2
g3
(g4
g5
(g9
S'\xf0\x85\xc9T\xc1\xa8\xfb?'
p1890
tp1891
Rp1892
F0.001
F0.9230769230769231
tp1893
tp1894
Rp1895
ag1
(g2
g3
(g4
g1397
F0.001
F0.9230769230769231
tp1896
tp1897
Rp1898
ag1
(g2
g3
(g4
g488
F0.01
F0.9230769230769231
tp1899
tp1900
Rp1901
ag1
(g2
g3
(g4
g1010
F0.1
F0.923076923076923
tp1902
tp1903
Rp1904
ag1
(g2
g3
(g4
g272
F0.001
F0.923076923076923
tp1905
tp1906
Rp1907
ag1
(g2
g3
(g4
g1418
F0.001
F0.923076923076923
tp1908
tp1909
Rp1910
ag1
(g2
g3
(g4
g1154
F0.01
F0.923076923076923
tp1911
tp1912
Rp1913
ag1
(g2
g3
(g4
g887
F0.001
F0.9224137931034484
tp1914
tp1915
Rp1916
ag1
(g2
g3
(g4
g404
F0.01
F0.9224137931034483
tp1917
tp1918
Rp1919
ag1
(g2
g3
(g4
g1520
F0.01
F0.9224137931034483
tp1920
tp1921
Rp1922
ag1
(g2
g3
(g4
g1397
F0.1
F0.9224137931034483
tp1923
tp1924
Rp1925
ag1
(g2
g3
(g4
g1469
F0.1
F0.9224137931034483
tp1926
tp1927
Rp1928
ag1
(g2
g3
(g4
g44
F0.1
F0.9223744292237444
tp1929
tp1930
Rp1931
ag1
(g2
g3
(g4
g917
F0.001
F0.9218106995884774
tp1932
tp1933
Rp1934
ag1
(g2
g3
(g4
g1739
F0.1
F0.9217391304347826
tp1935
tp1936
Rp1937
ag1
(g2
g3
(g4
g1718
F0.01
F0.9217391304347826
tp1938
tp1939
Rp1940
ag1
(g2
g3
(g4
g173
F0.01
F0.9217391304347826
tp1941
tp1942
Rp1943
ag1
(g2
g3
(g4
g893
F0.001
F0.9217391304347826
tp1944
tp1945
Rp1946
ag1
(g2
g3
(g4
g1868
F0.1
F0.9216589861751152
tp1947
tp1948
Rp1949
ag1
(g2
g3
(g4
g239
F0.001
F0.9216589861751152
tp1950
tp1951
Rp1952
ag1
(g2
g3
(g4
g1343
F0.001
F0.9216589861751152
tp1953
tp1954
Rp1955
ag1
(g2
g3
(g4
g680
F0.1
F0.9211618257261411
tp1956
tp1957
Rp1958
ag1
(g2
g3
(g4
g635
F0.01
F0.9211618257261411
tp1959
tp1960
Rp1961
ag1
(g2
g3
(g4
g239
F0.01
F0.9211618257261411
tp1962
tp1963
Rp1964
ag1
(g2
g3
(g4
g1769
F0.01
F0.921161825726141
tp1965
tp1966
Rp1967
ag1
(g2
g3
(g4
g1064
F0.01
F0.9209302325581395
tp1968
tp1969
Rp1970
ag1
(g2
g3
(g4
g494
F0.1
F0.9209302325581395
tp1971
tp1972
Rp1973
ag1
(g2
g3
(g4
g161
F0.001
F0.9209302325581395
tp1974
tp1975
Rp1976
ag1
(g2
g3
(g4
g728
F0.01
F0.9209302325581394
tp1977
tp1978
Rp1979
ag1
(g2
g3
(g4
g62
F0.1
F0.9206349206349206
tp1980
tp1981
Rp1982
ag1
(g2
g3
(g4
g1487
F0.001
F0.9205020920502093
tp1983
tp1984
Rp1985
ag1
(g2
g3
(g4
g1262
F0.1
F0.9205020920502092
tp1986
tp1987
Rp1988
ag1
(g2
g3
(g4
g1892
F0.1
F0.920353982300885
tp1989
tp1990
Rp1991
ag1
(g2
g3
(g4
g1391
F0.01
F0.9203539823008849
tp1992
tp1993
Rp1994
ag1
(g2
g3
(g4
g1301
F0.001
F0.9203539823008849
tp1995
tp1996
Rp1997
ag1
(g2
g3
(g4
g5
(g9
S'W}\xae\xb6b\x7f\x0b@'
p1998
tp1999
Rp2000
F0.001
F0.9203539823008849
tp2001
tp2002
Rp2003
ag1
(g2
g3
(g4
g326
F0.01
F0.9203539823008849
tp2004
tp2005
Rp2006
ag1
(g2
g3
(g4
g140
F0.001
F0.92
tp2007
tp2008
Rp2009
ag1
(g2
g3
(g4
g68
F0.001
F0.919831223628692
tp2010
tp2011
Rp2012
ag1
(g2
g3
(g4
g1571
F0.1
F0.919831223628692
tp2013
tp2014
Rp2015
ag1
(g2
g3
(g4
g467
F0.001
F0.9198312236286919
tp2016
tp2017
Rp2018
ag1
(g2
g3
(g4
g5
(g9
S'\xd9_vO\x1e\x16\xf9?'
p2019
tp2020
Rp2021
F0.01
F0.9196428571428572
tp2022
tp2023
Rp2024
ag1
(g2
g3
(g4
g965
F0.01
F0.9196428571428571
tp2025
tp2026
Rp2027
ag1
(g2
g3
(g4
g1070
F0.1
F0.9196428571428571
tp2028
tp2029
Rp2030
ag1
(g2
g3
(g4
g1184
F0.001
F0.9193548387096775
tp2031
tp2032
Rp2033
ag1
(g2
g3
(g4
g20
F0.001
F0.918918918918919
tp2034
tp2035
Rp2036
ag1
(g2
g3
(g4
g821
F0.001
F0.9186991869918699
tp2037
tp2038
Rp2039
ag1
(g2
g3
(g4
g356
F0.1
F0.9186602870813397
tp2040
tp2041
Rp2042
ag1
(g2
g3
(g4
g596
F0.1
F0.9186602870813397
tp2043
tp2044
Rp2045
ag1
(g2
g3
(g4
g1739
F0.001
F0.9184549356223176
tp2046
tp2047
Rp2048
ag1
(g2
g3
(g4
g107
F0.001
F0.9181818181818182
tp2049
tp2050
Rp2051
ag1
(g2
g3
(g4
g266
F0.001
F0.9181818181818182
tp2052
tp2053
Rp2054
ag1
(g2
g3
(g4
g572
F0.001
F0.9181818181818181
tp2055
tp2056
Rp2057
ag1
(g2
g3
(g4
g320
F0.01
F0.9181818181818181
tp2058
tp2059
Rp2060
ag1
(g2
g3
(g4
g1628
F0.1
F0.9180327868852458
tp2061
tp2062
Rp2063
ag1
(g2
g3
(g4
g1541
F0.001
F0.9178743961352658
tp2064
tp2065
Rp2066
ag1
(g2
g3
(g4
g332
F0.01
F0.9177489177489178
tp2067
tp2068
Rp2069
ag1
(g2
g3
(g4
g1016
F0.01
F0.9177489177489178
tp2070
tp2071
Rp2072
ag1
(g2
g3
(g4
g1148
F0.01
F0.9177489177489178
tp2073
tp2074
Rp2075
ag1
(g2
g3
(g4
g434
F0.01
F0.9177489177489176
tp2076
tp2077
Rp2078
ag1
(g2
g3
(g4
g332
F0.001
F0.9174311926605505
tp2079
tp2080
Rp2081
ag1
(g2
g3
(g4
g830
F0.1
F0.9174311926605505
tp2082
tp2083
Rp2084
ag1
(g2
g3
(g4
g1307
F0.001
F0.9174311926605505
tp2085
tp2086
Rp2087
ag1
(g2
g3
(g4
g803
F0.001
F0.9174311926605504
tp2088
tp2089
Rp2090
ag1
(g2
g3
(g4
g320
F0.001
F0.9173553719008264
tp2091
tp2092
Rp2093
ag1
(g2
g3
(g4
g821
F0.1
F0.9173553719008264
tp2094
tp2095
Rp2096
ag1
(g2
g3
(g4
g1337
F0.001
F0.9170731707317075
tp2097
tp2098
Rp2099
ag1
(g2
g3
(g4
g698
F0.1
F0.9170731707317074
tp2100
tp2101
Rp2102
ag1
(g2
g3
(g4
g620
F0.1
F0.9170305676855895
tp2103
tp2104
Rp2105
ag1
(g2
g3
(g4
g1691
F0.1
F0.9170305676855895
tp2106
tp2107
Rp2108
ag1
(g2
g3
(g4
g602
F0.1
F0.9170305676855894
tp2109
tp2110
Rp2111
ag1
(g2
g3
(g4
g863
F0.001
F0.9170305676855894
tp2112
tp2113
Rp2114
ag1
(g2
g3
(g4
g1028
F0.01
F0.9166666666666667
tp2115
tp2116
Rp2117
ag1
(g2
g3
(g4
g578
F0.001
F0.9166666666666666
tp2118
tp2119
Rp2120
ag1
(g2
g3
(g4
g803
F0.1
F0.9166666666666666
tp2121
tp2122
Rp2123
ag1
(g2
g3
(g4
g851
F0.001
F0.9166666666666665
tp2124
tp2125
Rp2126
ag1
(g2
g3
(g4
g308
F0.001
F0.9162995594713657
tp2127
tp2128
Rp2129
ag1
(g2
g3
(g4
g5
(g9
S'\xac\x1cZd;\xdf\xe5?'
p2130
tp2131
Rp2132
F0.1
F0.9162995594713657
tp2133
tp2134
Rp2135
ag1
(g2
g3
(g4
g1418
F0.01
F0.9162995594713657
tp2136
tp2137
Rp2138
ag1
(g2
g3
(g4
g2000
F0.01
F0.9162995594713657
tp2139
tp2140
Rp2141
ag1
(g2
g3
(g4
g1037
F0.01
F0.9162561576354681
tp2142
tp2143
Rp2144
ag1
(g2
g3
(g4
g1487
F0.01
F0.9159663865546218
tp2145
tp2146
Rp2147
ag1
(g2
g3
(g4
g899
F0.1
F0.9158878504672898
tp2148
tp2149
Rp2150
ag1
(g2
g3
(g4
g2000
F0.1
F0.9155555555555556
tp2151
tp2152
Rp2153
ag1
(g2
g3
(g4
g1010
F0.01
F0.9152542372881355
tp2154
tp2155
Rp2156
ag1
(g2
g3
(g4
g2132
F0.01
F0.9147982062780269
tp2157
tp2158
Rp2159
ag1
(g2
g3
(g4
g1022
F0.1
F0.9147982062780269
tp2160
tp2161
Rp2162
ag1
(g2
g3
(g4
g1274
F0.1
F0.9147982062780269
tp2163
tp2164
Rp2165
ag1
(g2
g3
(g4
g5
(g9
S'\xea\x95\xb2\x0cq\xac\x06@'
p2166
tp2167
Rp2168
F0.01
F0.9147982062780269
tp2169
tp2170
Rp2171
ag1
(g2
g3
(g4
g668
F0.1
F0.9145299145299145
tp2172
tp2173
Rp2174
ag1
(g2
g3
(g4
g539
F0.1
F0.9142857142857143
tp2175
tp2176
Rp2177
ag1
(g2
g3
(g4
g842
F0.001
F0.9137931034482759
tp2178
tp2179
Rp2180
ag1
(g2
g3
(g4
g905
F0.1
F0.9137931034482759
tp2181
tp2182
Rp2183
ag1
(g2
g3
(g4
g1868
F0.01
F0.9134615384615384
tp2184
tp2185
Rp2186
ag1
(g2
g3
(g4
g1178
F0.1
F0.9134615384615384
tp2187
tp2188
Rp2189
ag1
(g2
g3
(g4
g869
F0.01
F0.9134615384615384
tp2190
tp2191
Rp2192
ag1
(g2
g3
(g4
g734
F0.001
F0.91324200913242
tp2193
tp2194
Rp2195
ag1
(g2
g3
(g4
g512
F0.001
F0.9126213592233009
tp2196
tp2197
Rp2198
ag1
(g2
g3
(g4
g425
F0.01
F0.9124423963133641
tp2199
tp2200
Rp2201
ag1
(g2
g3
(g4
g1085
F0.1
F0.9124423963133641
tp2202
tp2203
Rp2204
ag1
(g2
g3
(g4
g986
F0.001
F0.912280701754386
tp2205
tp2206
Rp2207
ag1
(g2
g3
(g4
g1229
F0.001
F0.912280701754386
tp2208
tp2209
Rp2210
ag1
(g2
g3
(g4
g1541
F0.01
F0.9122807017543859
tp2211
tp2212
Rp2213
ag1
(g2
g3
(g4
g1691
F0.01
F0.9122807017543859
tp2214
tp2215
Rp2216
ag1
(g2
g3
(g4
g1718
F0.1
F0.9121338912133892
tp2217
tp2218
Rp2219
ag1
(g2
g3
(g4
g650
F0.001
F0.9121338912133891
tp2220
tp2221
Rp2222
ag1
(g2
g3
(g4
g1091
F0.1
F0.9116279069767442
tp2223
tp2224
Rp2225
ag1
(g2
g3
(g4
g272
F0.1
F0.9115044247787611
tp2226
tp2227
Rp2228
ag1
(g2
g3
(g4
g1520
F0.1
F0.911504424778761
tp2229
tp2230
Rp2231
ag1
(g2
g3
(g4
g1292
F0.1
F0.9107142857142857
tp2232
tp2233
Rp2234
ag1
(g2
g3
(g4
g1001
F0.01
F0.9107142857142856
tp2235
tp2236
Rp2237
ag1
(g2
g3
(g4
g1769
F0.1
F0.9106382978723404
tp2238
tp2239
Rp2240
ag1
(g2
g3
(g4
g1262
F0.01
F0.9105058365758755
tp2241
tp2242
Rp2243
ag1
(g2
g3
(g4
g386
F0.1
F0.909952606635071
tp2244
tp2245
Rp2246
ag1
(g2
g3
(g4
g782
F0.1
F0.9099099099099099
tp2247
tp2248
Rp2249
ag1
(g2
g3
(g4
g1343
F0.01
F0.9099099099099099
tp2250
tp2251
Rp2252
ag1
(g2
g3
(g4
g1091
F0.01
F0.9099099099099099
tp2253
tp2254
Rp2255
ag1
(g2
g3
(g4
g1319
F0.01
F0.9098712446351931
tp2256
tp2257
Rp2258
ag1
(g2
g3
(g4
g278
F0.001
F0.9098360655737705
tp2259
tp2260
Rp2261
ag1
(g2
g3
(g4
g2021
F0.001
F0.9090909090909091
tp2262
tp2263
Rp2264
ag1
(g2
g3
(g4
g1370
F0.1
F0.9090909090909091
tp2265
tp2266
Rp2267
ag1
(g2
g3
(g4
g797
F0.001
F0.9090909090909091
tp2268
tp2269
Rp2270
ag1
(g2
g3
(g4
g1478
F0.01
F0.9090909090909091
tp2271
tp2272
Rp2273
ag1
(g2
g3
(g4
g440
F0.01
F0.909090909090909
tp2274
tp2275
Rp2276
ag1
(g2
g3
(g4
g752
F0.001
F0.908256880733945
tp2277
tp2278
Rp2279
ag1
(g2
g3
(g4
g734
F0.1
F0.907563025210084
tp2280
tp2281
Rp2282
ag1
(g2
g3
(g4
g611
F0.1
F0.9075630252100839
tp2283
tp2284
Rp2285
ag1
(g2
g3
(g4
g746
F0.001
F0.9074074074074073
tp2286
tp2287
Rp2288
ag1
(g2
g3
(g4
g296
F0.1
F0.9073170731707317
tp2289
tp2290
Rp2291
ag1
(g2
g3
(g4
g1586
F0.01
F0.9073170731707316
tp2292
tp2293
Rp2294
ag1
(g2
g3
(g4
g206
F0.01
F0.9067796610169492
tp2295
tp2296
Rp2297
ag1
(g2
g3
(g4
g1433
F0.01
F0.9067796610169491
tp2298
tp2299
Rp2300
ag1
(g2
g3
(g4
g1256
F0.01
F0.9066666666666666
tp2301
tp2302
Rp2303
ag1
(g2
g3
(g4
g1178
F0.001
F0.9066666666666666
tp2304
tp2305
Rp2306
ag1
(g2
g3
(g4
g650
F0.1
F0.9056603773584905
tp2307
tp2308
Rp2309
ag1
(g2
g3
(g4
g398
F0.01
F0.9056603773584905
tp2310
tp2311
Rp2312
ag1
(g2
g3
(g4
g1364
F0.01
F0.9041095890410958
tp2313
tp2314
Rp2315
ag1
(g2
g3
(g4
g1301
F0.01
F0.9041095890410958
tp2316
tp2317
Rp2318
ag1
(g2
g3
(g4
g1892
F0.01
F0.9029126213592233
tp2319
tp2320
Rp2321
ag1
(g2
g3
(g4
g1070
F0.001
F0.9026548672566371
tp2322
tp2323
Rp2324
ag1
(g2
g3
(g4
g551
F0.01
F0.9024390243902439
tp2325
tp2326
Rp2327
ag1
(g2
g3
(g4
g1172
F0.001
F0.9023255813953488
tp2328
tp2329
Rp2330
ag1
(g2
g3
(g4
g1628
F0.01
F0.9014084507042254
tp2331
tp2332
Rp2333
ag1
(g2
g3
(g4
g1037
F0.001
F0.9009900990099009
tp2334
tp2335
Rp2336
ag1
(g2
g3
(g4
g1853
F0.001
F0.9008264462809917
tp2337
tp2338
Rp2339
ag1
(g2
g3
(g4
g2132
F0.001
F0.9
tp2340
tp2341
Rp2342
ag1
(g2
g3
(g4
g1571
F0.001
F0.8995215311004785
tp2343
tp2344
Rp2345
ag1
(g2
g3
(g4
g1142
F0.001
F0.8991596638655462
tp2346
tp2347
Rp2348
ag1
(g2
g3
(g4
g1853
F0.01
F0.8986784140969163
tp2349
tp2350
Rp2351
ag1
(g2
g3
(g4
g926
F0.01
F0.8974358974358975
tp2352
tp2353
Rp2354
ag1
(g2
g3
(g4
g2168
F0.001
F0.8974358974358975
tp2355
tp2356
Rp2357
ag1
(g2
g3
(g4
g461
F0.01
F0.897196261682243
tp2358
tp2359
Rp2360
ag1
(g2
g3
(g4
g563
F0.01
F0.8968609865470851
tp2361
tp2362
Rp2363
ag1
(g2
g3
(g4
g2021
F0.1
F0.8956521739130435
tp2364
tp2365
Rp2366
ag1
(g2
g3
(g4
g518
F0.01
F0.8956521739130435
tp2367
tp2368
Rp2369
ag1
(g2
g3
(g4
g563
F0.001
F0.894736842105263
tp2370
tp2371
Rp2372
ag1
(g2
g3
(g4
g2168
F0.1
F0.8930232558139536
tp2373
tp2374
Rp2375
ag1
(g2
g3
(g4
g662
F0.001
F0.8918918918918919
tp2376
tp2377
Rp2378
ag1
(g2
g3
(g4
g533
F0.001
F0.8916666666666667
tp2379
tp2380
Rp2381
ag1
(g2
g3
(g4
g938
F0.001
F0.8899521531100479
tp2382
tp2383
Rp2384
ag1
(g2
g3
(g4
g80
F0.1
F0.8898678414096917
tp2385
tp2386
Rp2387
ag1
(g2
g3
(g4
g1055
F0.001
F0.8898305084745763
tp2388
tp2389
Rp2390
ag1
(g2
g3
(g4
g215
F0.01
F0.8868778280542987
tp2391
tp2392
Rp2393
ag1
(g2
g3
(g4
g140
F0.01
F0.8828828828828829
tp2394
tp2395
Rp2396
ag1
(g2
g3
(g4
g1166
F0.001
F0.8744186046511628
tp2397
tp2398
Rp2399
ag1
(g2
g3
(g4
g5
(g9
S'-C\x1c\xeb\xe26\x1a?'
p2400
tp2401
Rp2402
F0.001
F0.7537091988130563
tp2403
tp2404
Rp2405
ag1
(g2
g3
(g4
g2402
F0.1
F0.7402597402597402
tp2406
tp2407
Rp2408
ag1
(g2
g3
(g4
g2402
F0.01
F0.7284345047923323
tp2409
tp2410
Rp2411
a.