(lp0
ccopy_reg
_reconstructor
p1
(cBenchmarkSVM
Point
p2
c__builtin__
tuple
p3
(S'linear'
p4
cnumpy.core.multiarray
scalar
p5
(cnumpy
dtype
p6
(S'f8'
p7
I0
I1
tp8
Rp9
(I3
S'<'
p10
NNNI-1
I-1
I0
tp11
bS'\x9a\x08\x1b\x9e^)\xd7?'
p12
tp13
Rp14
F0.9722222222222222
tp15
tp16
Rp17
ag1
(g2
g3
(g4
g5
(g9
S'\xebs\xb5\x15\xfbK\x03@'
p18
tp19
Rp20
F0.9663865546218487
tp21
tp22
Rp23
ag1
(g2
g3
(g4
g5
(g9
S'\xf5JY\x868V\x0b@'
p24
tp25
Rp26
F0.9655172413793104
tp27
tp28
Rp29
ag1
(g2
g3
(g4
g5
(g9
S'V\x9f\xab\xad\xd8\xdf\x0e@'
p30
tp31
Rp32
F0.9626556016597511
tp33
tp34
Rp35
ag1
(g2
g3
(g4
g5
(g9
S'\x0eO\xaf\x94e\x88\n@'
p36
tp37
Rp38
F0.9610389610389611
tp39
tp40
Rp41
ag1
(g2
g3
(g4
g5
(g9
S'{\x14\xaeG\xe1\xfa\x0b@'
p42
tp43
Rp44
F0.961038961038961
tp45
tp46
Rp47
ag1
(g2
g3
(g4
g5
(g9
S'\xe0\xbe\x0e\x9c3\xa2\xa4?'
p48
tp49
Rp50
F0.9576271186440678
tp51
tp52
Rp53
ag1
(g2
g3
(g4
g5
(g9
S'`\xe5\xd0"\xdb\xf9\xf2?'
p54
tp55
Rp56
F0.9572649572649573
tp57
tp58
Rp59
ag1
(g2
g3
(g4
g5
(g9
S'M\x84\rO\xaf\x14\x00@'
p60
tp61
Rp62
F0.9572649572649572
tp63
tp64
Rp65
ag1
(g2
g3
(g4
g5
(g9
S'\x03\x9a\x08\x1b\x9e\xde\x05@'
p66
tp67
Rp68
F0.9572649572649572
tp69
tp70
Rp71
ag1
(g2
g3
(g4
g5
(g9
S'/\xdd$\x06\x81\x95\xf4?'
p72
tp73
Rp74
F0.954954954954955
tp75
tp76
Rp77
ag1
(g2
g3
(g4
g5
(g9
S'\xbf}\x1d8gD\xfd?'
p78
tp79
Rp80
F0.954954954954955
tp81
tp82
Rp83
ag1
(g2
g3
(g4
g5
(g9
S'\x88c]\xdcF\x03\xe2?'
p84
tp85
Rp86
F0.9545454545454546
tp87
tp88
Rp89
ag1
(g2
g3
(g4
g5
(g9
S'\x17\xb7\xd1\x00\xde\x02\xf2?'
p90
tp91
Rp92
F0.9543568464730291
tp93
tp94
Rp95
ag1
(g2
g3
(g4
g5
(g9
S'X[\xb1\xbf\xec\x1e\x08@'
p96
tp97
Rp98
F0.9535864978902954
tp99
tp100
Rp101
ag1
(g2
g3
(g4
g5
(g9
S"TR'\xa0\x89\xb0\xf1?"
p102
tp103
Rp104
F0.9523809523809524
tp105
tp106
Rp107
ag1
(g2
g3
(g4
g5
(g9
S'\x85\xebQ\xb8\x1e\x85\xef?'
p108
tp109
Rp110
F0.9523809523809523
tp111
tp112
Rp113
ag1
(g2
g3
(g4
g5
(g9
S'lxz\xa5,C\xf4?'
p114
tp115
Rp116
F0.9523809523809523
tp117
tp118
Rp119
ag1
(g2
g3
(g4
g5
(g9
S'\x96\xb2\x0cq\xac\x0b\x01@'
p120
tp121
Rp122
F0.9520000000000001
tp123
tp124
Rp125
ag1
(g2
g3
(g4
g5
(g9
S'\x14?\xc6\xdc\xb5\x84\xff?'
p126
tp127
Rp128
F0.9512195121951219
tp129
tp130
Rp131
ag1
(g2
g3
(g4
g5
(g9
S'\xfc\x18s\xd7\x12\xf2\xfc?'
p132
tp133
Rp134
F0.9509803921568627
tp135
tp136
Rp137
ag1
(g2
g3
(g4
g5
(g9
S'2\xe6\xae%\xe4\x83\xe6?'
p138
tp139
Rp140
F0.9506726457399104
tp141
tp142
Rp143
ag1
(g2
g3
(g4
g5
(g9
S'!\x8euq\x1b\r\xfa?'
p144
tp145
Rp146
F0.9504132231404958
tp147
tp148
Rp149
ag1
(g2
g3
(g4
g5
(g9
S'\xa0\xab\xad\xd8_v\x0c@'
p150
tp151
Rp152
F0.9502262443438915
tp153
tp154
Rp155
ag1
(g2
g3
(g4
g5
(g9
S'\xa9\x13\xd0D\xd8\xf0\xf3?'
p156
tp157
Rp158
F0.95
tp159
tp160
Rp161
ag1
(g2
g3
(g4
g5
(g9
S'\xda\x1b|a2U\xf2?'
p162
tp163
Rp164
F0.9495798319327732
tp165
tp166
Rp167
ag1
(g2
g3
(g4
g5
(g9
S'2\xe6\xae%\xe4\x03\x0b@'
p168
tp169
Rp170
F0.9493087557603688
tp171
tp172
Rp173
ag1
(g2
g3
(g4
g5
(g9
S'\xd7\xa3p=\n\xd7\xff?'
p174
tp175
Rp176
F0.9482758620689655
tp177
tp178
Rp179
ag1
(g2
g3
(g4
g5
(g9
S'\xff!\xfd\xf6u\xe0\xee?'
p180
tp181
Rp182
F0.9478672985781991
tp183
tp184
Rp185
ag1
(g2
g3
(g4
g5
(g9
S'=\x9bU\x9f\xab\xad\x0f@'
p186
tp187
Rp188
F0.9473684210526316
tp189
tp190
Rp191
ag1
(g2
g3
(g4
g5
(g9
S'\xa1g\xb3\xeas\xb5\x05@'
p192
tp193
Rp194
F0.9468599033816426
tp195
tp196
Rp197
ag1
(g2
g3
(g4
g5
(g9
S'\x82\xe2\xc7\x98\xbb\x96\xfd?'
p198
tp199
Rp200
F0.9468599033816425
tp201
tp202
Rp203
ag1
(g2
g3
(g4
g5
(g9
S'\x9c\xc4 \xb0rh\xf9?'
p204
tp205
Rp206
F0.9468599033816424
tp207
tp208
Rp209
ag1
(g2
g3
(g4
g5
(g9
S'@5^\xbaI\x8c\x05@'
p210
tp211
Rp212
F0.9464285714285714
tp213
tp214
Rp215
ag1
(g2
g3
(g4
g5
(g9
S'\xbbI\x0c\x02+\x87\x01@'
p216
tp217
Rp218
F0.945945945945946
tp219
tp220
Rp221
ag1
(g2
g3
(g4
g5
(g9
S'v\xe0\x9c\x11\xa5\xbd\xc9?'
p222
tp223
Rp224
F0.9454545454545454
tp225
tp226
Rp227
ag1
(g2
g3
(g4
g5
(g9
S'4\xa2\xb47\xf8B\x04@'
p228
tp229
Rp230
F0.9453125
tp231
tp232
Rp233
ag1
(g2
g3
(g4
g5
(g9
S'\x01\xde\x02\t\x8a\x9f\x0c@'
p234
tp235
Rp236
F0.9446808510638298
tp237
tp238
Rp239
ag1
(g2
g3
(g4
g5
(g9
S'A\x13a\xc3\xd3+\x02@'
p240
tp241
Rp242
F0.9446808510638297
tp243
tp244
Rp245
ag1
(g2
g3
(g4
g5
(g9
S'j\xbct\x93\x18\x04\xfb?'
p246
tp247
Rp248
F0.9444444444444445
tp249
tp250
Rp251
ag1
(g2
g3
(g4
g5
(g9
S'|\xd0\xb3Y\xf5\xb9\xe0?'
p252
tp253
Rp254
F0.944206008583691
tp255
tp256
Rp257
ag1
(g2
g3
(g4
g5
(g9
S'9\xb4\xc8v\xbe\x9f\xfc?'
p258
tp259
Rp260
F0.944206008583691
tp261
tp262
Rp263
ag1
(g2
g3
(g4
g5
(g9
S'?W[\xb1\xbf\xec\x08@'
p264
tp265
Rp266
F0.944206008583691
tp267
tp268
Rp269
ag1
(g2
g3
(g4
g5
(g9
S'\xac\x1cZd;\xdf\xe5?'
p270
tp271
Rp272
F0.9439252336448598
tp273
tp274
Rp275
ag1
(g2
g3
(g4
g5
(g9
S'\x94\x18\x04V\x0e-\x0b@'
p276
tp277
Rp278
F0.9437229437229437
tp279
tp280
Rp281
ag1
(g2
g3
(g4
g5
(g9
S'\xd2\x91\\\xfeCz\x07@'
p282
tp283
Rp284
F0.943231441048035
tp285
tp286
Rp287
ag1
(g2
g3
(g4
g5
(g9
S'\x00\x00\x00\x00\x00\x00\x10@'
p288
tp289
Rp290
F0.9432314410480349
tp291
tp292
Rp293
ag1
(g2
g3
(g4
g5
(g9
S'\xc19#J{\x83\xf6?'
p294
tp295
Rp296
F0.942857142857143
tp297
tp298
Rp299
ag1
(g2
g3
(g4
g5
(g9
S'\x8euq\x1b\r\xe0\xd5?'
p300
tp301
Rp302
F0.9427312775330396
tp303
tp304
Rp305
ag1
(g2
g3
(g4
g5
(g9
S'\x0b$(~\x8c\xb9\xf0?'
p306
tp307
Rp308
F0.9427312775330396
tp309
tp310
Rp311
ag1
(g2
g3
(g4
g5
(g9
S'vO\x1e\x16jM\xfc?'
p312
tp313
Rp314
F0.9411764705882353
tp315
tp316
Rp317
ag1
(g2
g3
(g4
g5
(g9
S'~\xae\xb6b\x7f\xd9\x01@'
p318
tp319
Rp320
F0.9411764705882352
tp321
tp322
Rp323
ag1
(g2
g3
(g4
g5
(g9
S'\x10\xe9\xb7\xaf\x03g\x00@'
p324
tp325
Rp326
F0.9406392694063928
tp327
tp328
Rp329
ag1
(g2
g3
(g4
g5
(g9
S'EGr\xf9\x0f\xe9\xfd?'
p330
tp331
Rp332
F0.94
tp333
tp334
Rp335
ag1
(g2
g3
(g4
g5
(g9
S'\x0e-\xb2\x9d\xef\xa7\xe2?'
p336
tp337
Rp338
F0.9395348837209303
tp339
tp340
Rp341
ag1
(g2
g3
(g4
g5
(g9
S'\xdf\xe0\x0b\x93\xa9\x02\x02@'
p342
tp343
Rp344
F0.9389671361502347
tp345
tp346
Rp347
ag1
(g2
g3
(g4
g5
(g9
S'#J{\x83/L\xf3?'
p348
tp349
Rp350
F0.9382716049382717
tp351
tp352
Rp353
ag1
(g2
g3
(g4
g5
(g9
S'x\x0b$(~\x8c\xf5?'
p354
tp355
Rp356
F0.9382716049382717
tp357
tp358
Rp359
ag1
(g2
g3
(g4
g5
(g9
S'\xde\x02\t\x8a\x1fc\x05@'
p360
tp361
Rp362
F0.9382716049382716
tp363
tp364
Rp365
ag1
(g2
g3
(g4
g5
(g9
S'\x19\x04V\x0e-2\x0f@'
p366
tp367
Rp368
F0.9382716049382716
tp369
tp370
Rp371
ag1
(g2
g3
(g4
g5
(g9
S'>yX\xa85\xcd\xe7?'
p372
tp373
Rp374
F0.9380530973451328
tp375
tp376
Rp377
ag1
(g2
g3
(g4
g5
(g9
S'\x1b\xc0[ Aq\x08@'
p378
tp379
Rp380
F0.9380530973451328
tp381
tp382
Rp383
ag1
(g2
g3
(g4
g5
(g9
S'\xb2.n\xa3\x01\xbc\xd9?'
p384
tp385
Rp386
F0.9375
tp387
tp388
Rp389
ag1
(g2
g3
(g4
g5
(g9
S'Q\xda\x1b|a2\xff?'
p390
tp391
Rp392
F0.9375
tp393
tp394
Rp395
ag1
(g2
g3
(g4
g5
(g9
S'Y\x17\xb7\xd1\x00^\x01@'
p396
tp397
Rp398
F0.9375
tp399
tp400
Rp401
ag1
(g2
g3
(g4
g5
(g9
S'\xac\x1cZd;_\n@'
p402
tp403
Rp404
F0.9375
tp405
tp406
Rp407
ag1
(g2
g3
(g4
g5
(g9
S'\xf5lV}\xae\xb6\x0e@'
p408
tp409
Rp410
F0.9375
tp411
tp412
Rp413
ag1
(g2
g3
(g4
g5
(g9
S'W}\xae\xb6b\x7f\x0b@'
p414
tp415
Rp416
F0.9372384937238495
tp417
tp418
Rp419
ag1
(g2
g3
(g4
g5
(g9
S'?W[\xb1\xbf\xec\xae?'
p420
tp421
Rp422
F0.9370078740157481
tp423
tp424
Rp425
ag1
(g2
g3
(g4
g5
(g9
S'\x1a\xc0[ A\xf1\xe3?'
p426
tp427
Rp428
F0.9369369369369369
tp429
tp430
Rp431
ag1
(g2
g3
(g4
g5
(g9
S'\nh"lxz\xf7?'
p432
tp433
Rp434
F0.9369369369369369
tp435
tp436
Rp437
ag1
(g2
g3
(g4
g5
(g9
S'\x89c]\xdcF\x83\x06@'
p438
tp439
Rp440
F0.9369369369369368
tp441
tp442
Rp443
ag1
(g2
g3
(g4
g5
(g9
S'|\xf2\xb0Pk\x9a\x08@'
p444
tp445
Rp446
F0.9367088607594938
tp447
tp448
Rp449
ag1
(g2
g3
(g4
g5
(g9
S'\rq\xac\x8b\xdb\xe8\r@'
p450
tp451
Rp452
F0.9367088607594937
tp453
tp454
Rp455
ag1
(g2
g3
(g4
g5
(g9
S'\x93:\x01M\x84\x8d\x0e@'
p456
tp457
Rp458
F0.9367088607594937
tp459
tp460
Rp461
ag1
(g2
g3
(g4
g5
(g9
S'\xe7\xfb\xa9\xf1\xd2M\xec?'
p462
tp463
Rp464
F0.9363636363636364
tp465
tp466
Rp467
ag1
(g2
g3
(g4
g5
(g9
S'^)\xcb\x10\xc7\xba\xd0?'
p468
tp469
Rp470
F0.9363636363636363
tp471
tp472
Rp473
ag1
(g2
g3
(g4
g5
(g9
S'm\xc5\xfe\xb2{\xf2\xec?'
p474
tp475
Rp476
F0.9361702127659575
tp477
tp478
Rp479
ag1
(g2
g3
(g4
g5
(g9
S'\xe4\xf2\x1f\xd2o_\xfa?'
p480
tp481
Rp482
F0.9357798165137615
tp483
tp484
Rp485
ag1
(g2
g3
(g4
g5
(g9
S'.n\xa3\x01\xbc\x05\xc2?'
p486
tp487
Rp488
F0.9357798165137614
tp489
tp490
Rp491
ag1
(g2
g3
(g4
g5
(g9
S'\xf8\xe4a\xa1\xd64\x01@'
p492
tp493
Rp494
F0.9356223175965666
tp495
tp496
Rp497
ag1
(g2
g3
(g4
g5
(g9
S'\xdbh\x00o\x81\x04\xeb?'
p498
tp499
Rp500
F0.9354838709677421
tp501
tp502
Rp503
ag1
(g2
g3
(g4
g5
(g9
S'\xcd\xcc\xcc\xcc\xcc\xcc\xf7?'
p504
tp505
Rp506
F0.9345794392523366
tp507
tp508
Rp509
ag1
(g2
g3
(g4
g5
(g9
S'\xf0\x85\xc9T\xc1\xa8\xfb?'
p510
tp511
Rp512
F0.9344978165938864
tp513
tp514
Rp515
ag1
(g2
g3
(g4
g5
(g9
S'J\x0c\x02+\x87\x16\xe9?'
p516
tp517
Rp518
F0.934010152284264
tp519
tp520
Rp521
ag1
(g2
g3
(g4
g5
(g9
S'p_\x07\xce\x19Q\x07@'
p522
tp523
Rp524
F0.934010152284264
tp525
tp526
Rp527
ag1
(g2
g3
(g4
g5
(g9
S'\xac>W[\xb1\xbf\r@'
p528
tp529
Rp530
F0.9339622641509434
tp531
tp532
Rp533
ag1
(g2
g3
(g4
g5
(g9
S'\x91\xed|?5^\xf1?'
p534
tp535
Rp536
F0.9339622641509433
tp537
tp538
Rp539
ag1
(g2
g3
(g4
g5
(g9
S'\xddF\x03x\x0b$\x0c@'
p540
tp541
Rp542
F0.9339622641509433
tp543
tp544
Rp545
ag1
(g2
g3
(g4
g5
(g9
S'\xa5,C\x1c\xeb\xe2\xce?'
p546
tp547
Rp548
F0.9333333333333333
tp549
tp550
Rp551
ag1
(g2
g3
(g4
g5
(g9
S'\xa6\x9b\xc4 \xb0r\xd8?'
p552
tp553
Rp554
F0.9333333333333333
tp555
tp556
Rp557
ag1
(g2
g3
(g4
g5
(g9
S'\xb3\xeas\xb5\x15\xfb\xfb?'
p558
tp559
Rp560
F0.9333333333333333
tp561
tp562
Rp563
ag1
(g2
g3
(g4
g5
(g9
S'\xf7\x06_\x98L\x95\x04@'
p564
tp565
Rp566
F0.9333333333333333
tp567
tp568
Rp569
ag1
(g2
g3
(g4
g5
(g9
S'5\x80\xb7@\x82\xe2\x00@'
p570
tp571
Rp572
F0.9326923076923077
tp573
tp574
Rp575
ag1
(g2
g3
(g4
g5
(g9
S'\x1b\x9e^)\xcb\x10\x05@'
p576
tp577
Rp578
F0.9322033898305084
tp579
tp580
Rp581
ag1
(g2
g3
(g4
g5
(g9
S'd\xeeZB>h\t@'
p582
tp583
Rp584
F0.9321266968325792
tp585
tp586
Rp587
ag1
(g2
g3
(g4
g5
(g9
S'J\x0c\x02+\x87\x96\r@'
p588
tp589
Rp590
F0.9321266968325792
tp591
tp592
Rp593
ag1
(g2
g3
(g4
g5
(g9
S'\x9f\xcd\xaa\xcf\xd5\xd6\x0f@'
p594
tp595
Rp596
F0.9321266968325792
tp597
tp598
Rp599
ag1
(g2
g3
(g4
g5
(g9
S'\x901w-!\x1f\xf8?'
p600
tp601
Rp602
F0.9320388349514563
tp603
tp604
Rp605
ag1
(g2
g3
(g4
g5
(g9
S'(\x0f\x0b\xb5\xa6\xf9\x02@'
p606
tp607
Rp608
F0.9316239316239316
tp609
tp610
Rp611
ag1
(g2
g3
(g4
g5
(g9
S'.\x90\xa0\xf81\xe6\xbe?'
p612
tp613
Rp614
F0.9315068493150684
tp615
tp616
Rp617
ag1
(g2
g3
(g4
g5
(g9
S'F\x94\xf6\x06_\x98\xc4?'
p618
tp619
Rp620
F0.9315068493150684
tp621
tp622
Rp623
ag1
(g2
g3
(g4
g5
(g9
S'&S\x05\xa3\x92:\xe5?'
p624
tp625
Rp626
F0.9315068493150684
tp627
tp628
Rp629
ag1
(g2
g3
(g4
g5
(g9
S'j\xbct\x93\x18\x04\xd2?'
p630
tp631
Rp632
F0.9310344827586208
tp633
tp634
Rp635
ag1
(g2
g3
(g4
g5
(g9
S"'1\x08\xac\x1cZ\x06@"
p636
tp637
Rp638
F0.9310344827586207
tp639
tp640
Rp641
ag1
(g2
g3
(g4
g5
(g9
S"\x0f-\xb2\x9d\xef'\x07@"
p642
tp643
Rp644
F0.9308755760368664
tp645
tp646
Rp647
ag1
(g2
g3
(g4
g5
(g9
S'yX\xa85\xcd;\xee?'
p648
tp649
Rp650
F0.9304347826086956
tp651
tp652
Rp653
ag1
(g2
g3
(g4
g5
(g9
S'^\xbaI\x0c\x02+\xc7?'
p654
tp655
Rp656
F0.9298245614035088
tp657
tp658
Rp659
ag1
(g2
g3
(g4
g5
(g9
S'\xbak\t\xf9\xa0\xe7\x04@'
p660
tp661
Rp662
F0.9295774647887324
tp663
tp664
Rp665
ag1
(g2
g3
(g4
g5
(g9
S'\xde$\x06\x81\x95\xc3\x08@'
p666
tp667
Rp668
F0.9295774647887323
tp669
tp670
Rp671
ag1
(g2
g3
(g4
g5
(g9
S'>yX\xa85M\x0c@'
p672
tp673
Rp674
F0.9292035398230089
tp675
tp676
Rp677
ag1
(g2
g3
(g4
g5
(g9
S'\x8aA`\xe5\xd0"\x03@'
p678
tp679
Rp680
F0.928909952606635
tp681
tp682
Rp683
ag1
(g2
g3
(g4
g5
(g9
S'o\xa3\x01\xbc\x05\x12\x0e@'
p684
tp685
Rp686
F0.928909952606635
tp687
tp688
Rp689
ag1
(g2
g3
(g4
g5
(g9
S'\xad\xfa\\m\xc5\xfe\x06@'
p690
tp691
Rp692
F0.9285714285714286
tp693
tp694
Rp695
ag1
(g2
g3
(g4
g5
(g9
S'\xd1\xb3Y\xf5\xb9\xda\n@'
p696
tp697
Rp698
F0.9285714285714286
tp699
tp700
Rp701
ag1
(g2
g3
(g4
g5
(g9
S'\x9d\x80&\xc2\x86\xa7\xf2?'
p702
tp703
Rp704
F0.9285714285714285
tp705
tp706
Rp707
ag1
(g2
g3
(g4
g5
(g9
S'\x04x\x0b$(~\x02@'
p708
tp709
Rp710
F0.9285714285714285
tp711
tp712
Rp713
ag1
(g2
g3
(g4
g5
(g9
S"'S\x05\xa3\x92\xba\t@"
p714
tp715
Rp716
F0.9285714285714285
tp717
tp718
Rp719
ag1
(g2
g3
(g4
g5
(g9
S'o\x81\x04\xc5\x8f\xb1\n@'
p720
tp721
Rp722
F0.9285714285714285
tp723
tp724
Rp725
ag1
(g2
g3
(g4
g5
(g9
S'X9\xb4\xc8v\xbe\x04@'
p726
tp727
Rp728
F0.9282700421940928
tp729
tp730
Rp731
ag1
(g2
g3
(g4
g5
(g9
S'\xe6\xae%\xe4\x83\x9e\xf3?'
p732
tp733
Rp734
F0.9282700421940927
tp735
tp736
Rp737
ag1
(g2
g3
(g4
g5
(g9
S'K\xea\x044\x116\n@'
p738
tp739
Rp740
F0.9282296650717703
tp741
tp742
Rp743
ag1
(g2
g3
(g4
g5
(g9
S'\xb5\xa6y\xc7):\xf5?'
p744
tp745
Rp746
F0.9279279279279279
tp747
tp748
Rp749
ag1
(g2
g3
(g4
g5
(g9
S'\xe9\xb7\xaf\x03\xe7\x0c\n@'
p750
tp751
Rp752
F0.9276595744680851
tp753
tp754
Rp755
ag1
(g2
g3
(g4
g5
(g9
S'\x94\xf6\x06_\x98L\xe3?'
p756
tp757
Rp758
F0.9272727272727272
tp759
tp760
Rp761
ag1
(g2
g3
(g4
g5
(g9
S'\xb8\xaf\x03\xe7\x8c(\xe7?'
p762
tp763
Rp764
F0.927038626609442
tp765
tp766
Rp767
ag1
(g2
g3
(g4
g5
(g9
S'\x8euq\x1b\r\xe0\xfe?'
p768
tp769
Rp770
F0.927038626609442
tp771
tp772
Rp773
ag1
(g2
g3
(g4
g5
(g9
S'\xe9\xd9\xac\xfa\\m\r@'
p774
tp775
Rp776
F0.927038626609442
tp777
tp778
Rp779
ag1
(g2
g3
(g4
g5
(g9
S'\xae\xd8_vO\x9e\x03@'
p780
tp781
Rp782
F0.926605504587156
tp783
tp784
Rp785
ag1
(g2
g3
(g4
g5
(g9
S'\xf2A\xcff\xd5\xe7\xf4?'
p786
tp787
Rp788
F0.9264069264069265
tp789
tp790
Rp791
ag1
(g2
g3
(g4
g5
(g9
S'\xea\x95\xb2\x0cq\xac\x06@'
p792
tp793
Rp794
F0.9264069264069265
tp795
tp796
Rp797
ag1
(g2
g3
(g4
g5
(g9
S'_)\xcb\x10\xc7\xba\xf9?'
p798
tp799
Rp800
F0.9259259259259259
tp801
tp802
Rp803
ag1
(g2
g3
(g4
g5
(g9
S'e\xaa`TR\xa7\x02@'
p804
tp805
Rp806
F0.925764192139738
tp807
tp808
Rp809
ag1
(g2
g3
(g4
g5
(g9
S'\xa0\x89\xb0\xe1\xe9\x95\xe4?'
p810
tp811
Rp812
F0.9257641921397379
tp813
tp814
Rp815
ag1
(g2
g3
(g4
g5
(g9
S'\xd5\xe7j+\xf6\x97\xdd?'
p816
tp817
Rp818
F0.9253731343283583
tp819
tp820
Rp821
ag1
(g2
g3
(g4
g5
(g9
S'3\xc4\xb1.n\xa3\x07@'
p822
tp823
Rp824
F0.925233644859813
tp825
tp826
Rp827
ag1
(g2
g3
(g4
g5
(g9
S'\xaf\xb6b\x7f\xd9=\x00@'
p828
tp829
Rp830
F0.925
tp831
tp832
Rp833
ag1
(g2
g3
(g4
g5
(g9
S';p\xce\x88\xd2\xde\xf5?'
p834
tp835
Rp836
F0.9244444444444445
tp837
tp838
Rp839
ag1
(g2
g3
(g4
g5
(g9
S'\xcf\xf7S\xe3\xa5\x9b\xb4?'
p840
tp841
Rp842
F0.9244444444444444
tp843
tp844
Rp845
ag1
(g2
g3
(g4
g5
(g9
S'\xbd\xc1\x17&S\x05\xdb?'
p846
tp847
Rp848
F0.9244444444444444
tp849
tp850
Rp851
ag1
(g2
g3
(g4
g5
(g9
S'\x16\xfb\xcb\xee\xc9\xc3\xf8?'
p852
tp853
Rp854
F0.9244444444444444
tp855
tp856
Rp857
ag1
(g2
g3
(g4
g5
(g9
S'\x8d\x06\xf0\x16HP\xcc?'
p858
tp859
Rp860
F0.9243697478991597
tp861
tp862
Rp863
ag1
(g2
g3
(g4
g5
(g9
S'z6\xab>W[\x0f@'
p864
tp865
Rp866
F0.9237288135593219
tp867
tp868
Rp869
ag1
(g2
g3
(g4
g5
(g9
S'\x85Z\xd3\xbc\xe3\x14\xf0?'
p870
tp871
Rp872
F0.9230769230769231
tp873
tp874
Rp875
ag1
(g2
g3
(g4
g5
(g9
S'\xb9\x8d\x06\xf0\x16H\x08@'
p876
tp877
Rp878
F0.9230769230769231
tp879
tp880
Rp881
ag1
(g2
g3
(g4
g5
(g9
S'\xe1z\x14\xaeG\xe1\xde?'
p882
tp883
Rp884
F0.923076923076923
tp885
tp886
Rp887
ag1
(g2
g3
(g4
g5
(g9
S'\xc6\xfe\xb2{\xf20\x06@'
p888
tp889
Rp890
F0.923076923076923
tp891
tp892
Rp893
ag1
(g2
g3
(g4
g5
(g9
S'\xffC\xfa\xed\xeb\xc0\xb9?'
p894
tp895
Rp896
F0.9224137931034483
tp897
tp898
Rp899
ag1
(g2
g3
(g4
g5
(g9
S'\xd9_vO\x1e\x16\xf9?'
p900
tp901
Rp902
F0.9223744292237445
tp903
tp904
Rp905
ag1
(g2
g3
(g4
g5
(g9
S'L\xc8\x07=\x9b\xd5\x06@'
p906
tp907
Rp908
F0.9223744292237444
tp909
tp910
Rp911
ag1
(g2
g3
(g4
g5
(g9
S'\x1a\xe2X\x17\xb7\xd1\x0b@'
p912
tp913
Rp914
F0.9223300970873787
tp915
tp916
Rp917
ag1
(g2
g3
(g4
g5
(g9
S'\xce\x88\xd2\xde\xe0\x0b\xf1?'
p918
tp919
Rp920
F0.9211618257261411
tp921
tp922
Rp923
ag1
(g2
g3
(g4
g5
(g9
S'\xc9T\xc1\xa8\xa4N\xdc?'
p924
tp925
Rp926
F0.9210526315789475
tp927
tp928
Rp929
ag1
(g2
g3
(g4
g5
(g9
S'\x10\x0b\xb5\xa6y\xc7\x03@'
p930
tp931
Rp932
F0.9210526315789475
tp933
tp934
Rp935
ag1
(g2
g3
(g4
g5
(g9
S'\xc4B\xadi\xdeq\xe8?'
p936
tp937
Rp938
F0.9210526315789473
tp939
tp940
Rp941
ag1
(g2
g3
(g4
g5
(g9
S'r\x1b\r\xe0-\x90\x00@'
p942
tp943
Rp944
F0.920353982300885
tp945
tp946
Rp947
ag1
(g2
g3
(g4
g5
(g9
S'\xf3\x8eSt$\x97\xed?'
p948
tp949
Rp950
F0.9201877934272301
tp951
tp952
Rp953
ag1
(g2
g3
(g4
g5
(g9
S'\xf6\x06_\x98L\x15\xe0?'
p954
tp955
Rp956
F0.9194312796208531
tp957
tp958
Rp959
ag1
(g2
g3
(g4
g5
(g9
S'2\x08\xac\x1cZd\x0e@'
p960
tp961
Rp962
F0.9193548387096775
tp963
tp964
Rp965
ag1
(g2
g3
(g4
g5
(g9
S'\xdch\x00o\x81\x84\x0f@'
p966
tp967
Rp968
F0.9191489361702128
tp969
tp970
Rp971
ag1
(g2
g3
(g4
g5
(g9
S'\x84\x9e\xcd\xaa\xcf\xd5\xf6?'
p972
tp973
Rp974
F0.9186602870813397
tp975
tp976
Rp977
ag1
(g2
g3
(g4
g5
(g9
S'\x01M\x84\rO\xaf\x94?'
p978
tp979
Rp980
F0.9184549356223176
tp981
tp982
Rp983
ag1
(g2
g3
(g4
g5
(g9
S'\x82\xe2\xc7\x98\xbb\x96\xd4?'
p984
tp985
Rp986
F0.9184549356223176
tp987
tp988
Rp989
ag1
(g2
g3
(g4
g5
(g9
S'd\xcc]K\xc8\x07\x06@'
p990
tp991
Rp992
F0.9177489177489179
tp993
tp994
Rp995
ag1
(g2
g3
(g4
g5
(g9
S'\x88\x85Z\xd3\xbc\xe3\t@'
p996
tp997
Rp998
F0.9173553719008264
tp999
tp1000
Rp1001
ag1
(g2
g3
(g4
g5
(g9
S'vO\x1e\x16jM\xd3?'
p1002
tp1003
Rp1004
F0.9166666666666666
tp1005
tp1006
Rp1007
ag1
(g2
g3
(g4
g5
(g9
S'\xc4B\xadi\xde\xf1\x0c@'
p1008
tp1009
Rp1010
F0.9162995594713657
tp1011
tp1012
Rp1013
ag1
(g2
g3
(g4
g5
(g9
S'\x08\xac\x1cZd;\xfe?'
p1014
tp1015
Rp1016
F0.9155555555555556
tp1017
tp1018
Rp1019
ag1
(g2
g3
(g4
g5
(g9
S'\xd3Mb\x10X\xb9\x00@'
p1020
tp1021
Rp1022
F0.9155555555555556
tp1023
tp1024
Rp1025
ag1
(g2
g3
(g4
g5
(g9
S'\x1c|a2U\xb0\x01@'
p1026
tp1027
Rp1028
F0.9152542372881356
tp1029
tp1030
Rp1031
ag1
(g2
g3
(g4
g5
(g9
S'\xc7\xdc\xb5\x84|\xd0\x02@'
p1032
tp1033
Rp1034
F0.9152542372881355
tp1035
tp1036
Rp1037
ag1
(g2
g3
(g4
g5
(g9
S'\x02\x9a\x08\x1b\x9e^\xe1?'
p1038
tp1039
Rp1040
F0.9147982062780269
tp1041
tp1042
Rp1043
ag1
(g2
g3
(g4
g5
(g9
S'\xc5 \xb0rh\x91\t@'
p1044
tp1045
Rp1046
F0.9147982062780269
tp1047
tp1048
Rp1049
ag1
(g2
g3
(g4
g5
(g9
S'G\x03x\x0b$(\xf7?'
p1050
tp1051
Rp1052
F0.9137931034482759
tp1053
tp1054
Rp1055
ag1
(g2
g3
(g4
g5
(g9
S'\xa7W\xca2\xc4\xb1\xfa?'
p1056
tp1057
Rp1058
F0.9128630705394191
tp1059
tp1060
Rp1061
ag1
(g2
g3
(g4
g5
(g9
S'S\x96!\x8euq\xf8?'
p1062
tp1063
Rp1064
F0.9124423963133641
tp1065
tp1066
Rp1067
ag1
(g2
g3
(g4
g5
(g9
S'H\xbf}\x1d8g\xf0?'
p1068
tp1069
Rp1070
F0.9122807017543859
tp1071
tp1072
Rp1073
ag1
(g2
g3
(g4
g5
(g9
S'&u\x02\x9a\x08\x1b\r@'
p1074
tp1075
Rp1076
F0.9121338912133892
tp1077
tp1078
Rp1079
ag1
(g2
g3
(g4
g5
(g9
S'\xd0\xd5V\xec/;\x0e@'
p1080
tp1081
Rp1082
F0.911504424778761
tp1083
tp1084
Rp1085
ag1
(g2
g3
(g4
g5
(g9
S'U\x9f\xab\xad\xd8_\xea?'
p1086
tp1087
Rp1088
F0.9106382978723405
tp1089
tp1090
Rp1091
ag1
(g2
g3
(g4
g5
(g9
S'-!\x1f\xf4lV\xfb?'
p1092
tp1093
Rp1094
F0.9106382978723404
tp1095
tp1096
Rp1097
ag1
(g2
g3
(g4
g5
(g9
S'\xfe\xd4x\xe9&1\xf6?'
p1098
tp1099
Rp1100
F0.9099099099099099
tp1101
tp1102
Rp1103
ag1
(g2
g3
(g4
g5
(g9
S'\xb7\xd1\x00\xde\x02\t\x0f@'
p1104
tp1105
Rp1106
F0.9083333333333333
tp1107
tp1108
Rp1109
ag1
(g2
g3
(g4
g5
(g9
S'\xcb\x10\xc7\xba\xb8\x8d\xfe?'
p1110
tp1111
Rp1112
F0.9082969432314411
tp1113
tp1114
Rp1115
ag1
(g2
g3
(g4
g5
(g9
S'q=\n\xd7\xa3\xf0\x03@'
p1116
tp1117
Rp1118
F0.9082969432314411
tp1119
tp1120
Rp1121
ag1
(g2
g3
(g4
g5
(g9
S'a2U0*\xa9\xeb?'
p1122
tp1123
Rp1124
F0.9068825910931174
tp1125
tp1126
Rp1127
ag1
(g2
g3
(g4
g5
(g9
S'\xf6(\\\x8f\xc2\xf5\x07@'
p1128
tp1129
Rp1130
F0.9066666666666667
tp1131
tp1132
Rp1133
ag1
(g2
g3
(g4
g5
(g9
S'}\xd0\xb3Y\xf59\x05@'
p1134
tp1135
Rp1136
F0.9059829059829059
tp1137
tp1138
Rp1139
ag1
(g2
g3
(g4
g5
(g9
S'\xd0\xd5V\xec/\xbb\xe9?'
p1140
tp1141
Rp1142
F0.905829596412556
tp1143
tp1144
Rp1145
ag1
(g2
g3
(g4
g5
(g9
S'c\x10X9\xb4\xc8\x0c@'
p1146
tp1147
Rp1148
F0.9056603773584906
tp1149
tp1150
Rp1151
ag1
(g2
g3
(g4
g5
(g9
S'\x02\xbc\x05\x12\x14?\t@'
p1152
tp1153
Rp1154
F0.9045643153526971
tp1155
tp1156
Rp1157
ag1
(g2
g3
(g4
g5
(g9
S'\xa2E\xb6\xf3\xfdT\x02@'
p1158
tp1159
Rp1160
F0.9023255813953489
tp1161
tp1162
Rp1163
ag1
(g2
g3
(g4
g5
(g9
S'\x96\xd4\th"l\x04@'
p1164
tp1165
Rp1166
F0.9023255813953488
tp1167
tp1168
Rp1169
ag1
(g2
g3
(g4
g5
(g9
S'\xd3o_\x07\xce\x19\x04@'
p1170
tp1171
Rp1172
F0.902127659574468
tp1173
tp1174
Rp1175
ag1
(g2
g3
(g4
g5
(g9
S'\xa1\x89\xb0\xe1\xe9\x15\t@'
p1176
tp1177
Rp1178
F0.8965517241379312
tp1179
tp1180
Rp1181
ag1
(g2
g3
(g4
g5
(g9
S'\x87\xa7W\xca2D\r@'
p1182
tp1183
Rp1184
F0.8959276018099547
tp1185
tp1186
Rp1187
ag1
(g2
g3
(g4
g5
(g9
S'\xb8\xaf\x03\xe7\x8c\xa8\x0b@'
p1188
tp1189
Rp1190
F0.8956521739130435
tp1191
tp1192
Rp1193
ag1
(g2
g3
(g4
g5
(g9
S'M\xa6\nF%u\x03@'
p1194
tp1195
Rp1196
F0.8831168831168831
tp1197
tp1198
Rp1199
ag1
(g2
g3
(g4
g5
(g9
S'\x95\xf6\x06_\x98\xcc\x07@'
p1200
tp1201
Rp1202
F0.8792270531400966
tp1203
tp1204
Rp1205
ag1
(g2
g3
(g4
g5
(g9
S'-C\x1c\xeb\xe26\x1a?'
p1206
tp1207
Rp1208
F0.6903225806451613
tp1209
tp1210
Rp1211
a.